
========================================================================

** ELF Header Information

    File Name: .\obj\UART_TxRx_Function.axf

    Machine class: ELFCLASS32 (32-bit)
    Data encoding: ELFDATA2LSB (Little endian)
    Header version: EV_CURRENT (Current version)
    Operating System ABI: none
    ABI Version: 0
    File Type: ET_EXEC (Executable) (2)
    Machine: EM_ARM (ARM)

    Image Entry point: 0x00000191
    Flags: EF_ARM_HASENTRY + EF_ARM_ABI_FLOAT_SOFT (0x05000202)

    ARM ELF revision: 5 (ABI version 2)

    Conforms to Soft float procedure-call standard

    Built with
    Component: ARM Compiler 5.06 update 6 (build 750) Tool: armasm [4d35ec]
    Component: ARM Compiler 5.06 update 6 (build 750) Tool: armlink [4d35ed]

    Header size: 52 bytes (0x34)
    Program header entry size: 32 bytes (0x20)
    Section header entry size: 40 bytes (0x28)

    Program header entries: 1
    Section header entries: 16

    Program header offset: 123584 (0x0001e2c0)
    Section header offset: 123616 (0x0001e2e0)

    Section header string table index: 15

========================================================================

** Program header #0 (PT_LOAD) [PF_X + PF_W + PF_R + PF_ARM_ENTRY]
    Size : 4476 bytes (3752 bytes in file)
    Virtual address: 0x00000000 (Alignment 8)


========================================================================

** Section #1 'ER_RO' (SHT_PROGBITS) [SHF_ALLOC + SHF_EXECINSTR]
    Size   : 3716 bytes (alignment 4)
    Address: 0x00000000

    $d.realdata
    RESET
    __Vectors
        0x00000000:    200002f8    ...     DCD    536871672
        0x00000004:    00000191    ....    DCD    401
        0x00000008:    000001b1    ....    DCD    433
        0x0000000c:    00000175    u...    DCD    373
        0x00000010:    00000000    ....    DCD    0
        0x00000014:    00000000    ....    DCD    0
        0x00000018:    00000000    ....    DCD    0
        0x0000001c:    00000000    ....    DCD    0
        0x00000020:    00000000    ....    DCD    0
        0x00000024:    00000000    ....    DCD    0
        0x00000028:    00000000    ....    DCD    0
        0x0000002c:    000001b5    ....    DCD    437
        0x00000030:    00000000    ....    DCD    0
        0x00000034:    00000000    ....    DCD    0
        0x00000038:    000001b7    ....    DCD    439
        0x0000003c:    000001b9    ....    DCD    441
        0x00000040:    000001bb    ....    DCD    443
        0x00000044:    000001bb    ....    DCD    443
        0x00000048:    000001bb    ....    DCD    443
        0x0000004c:    000001bb    ....    DCD    443
        0x00000050:    000001bb    ....    DCD    443
        0x00000054:    000001bb    ....    DCD    443
        0x00000058:    000001bb    ....    DCD    443
        0x0000005c:    000001bb    ....    DCD    443
        0x00000060:    000001bb    ....    DCD    443
        0x00000064:    000001bb    ....    DCD    443
        0x00000068:    000001bb    ....    DCD    443
        0x0000006c:    000001bb    ....    DCD    443
        0x00000070:    000009c5    ....    DCD    2501
        0x00000074:    000001bb    ....    DCD    443
        0x00000078:    000001bb    ....    DCD    443
        0x0000007c:    000001bb    ....    DCD    443
        0x00000080:    000001bb    ....    DCD    443
        0x00000084:    000001bb    ....    DCD    443
        0x00000088:    000001bb    ....    DCD    443
        0x0000008c:    000001bb    ....    DCD    443
        0x00000090:    000001bb    ....    DCD    443
        0x00000094:    000001bb    ....    DCD    443
        0x00000098:    000001bb    ....    DCD    443
        0x0000009c:    000001bb    ....    DCD    443
        0x000000a0:    000001bb    ....    DCD    443
        0x000000a4:    000001bb    ....    DCD    443
        0x000000a8:    000001bb    ....    DCD    443
        0x000000ac:    000001bb    ....    DCD    443
        0x000000b0:    000001bb    ....    DCD    443
        0x000000b4:    000001bb    ....    DCD    443
        0x000000b8:    000001bb    ....    DCD    443
        0x000000bc:    000001bb    ....    DCD    443
    $t
    !!!main
    __main
        0x000000c0:    f000f802    ....    BL       __scatterload ; 0xc8
        0x000000c4:    f000f846    ..F.    BL       __rt_entry ; 0x154
    !!!scatter
    __scatterload
    __scatterload_rt2
    __scatterload_rt2_thumb_only
        0x000000c8:    a00c        ..      ADR      r0,{pc}+0x34 ; 0xfc
        0x000000ca:    c830        0.      LDM      r0!,{r4,r5}
        0x000000cc:    3808        .8      SUBS     r0,r0,#8
        0x000000ce:    1824        $.      ADDS     r4,r4,r0
        0x000000d0:    182d        -.      ADDS     r5,r5,r0
        0x000000d2:    46a2        .F      MOV      r10,r4
        0x000000d4:    1e67        g.      SUBS     r7,r4,#1
        0x000000d6:    46ab        .F      MOV      r11,r5
    __scatterload_null
        0x000000d8:    4654        TF      MOV      r4,r10
        0x000000da:    465d        ]F      MOV      r5,r11
        0x000000dc:    42ac        .B      CMP      r4,r5
        0x000000de:    d101        ..      BNE      0xe4 ; __scatterload_null + 12
        0x000000e0:    f000f838    ..8.    BL       __rt_entry ; 0x154
        0x000000e4:    467e        ~F      MOV      r6,pc
        0x000000e6:    3e0f        .>      SUBS     r6,r6,#0xf
        0x000000e8:    cc0f        ..      LDM      r4!,{r0-r3}
        0x000000ea:    46b6        .F      MOV      lr,r6
        0x000000ec:    2601        .&      MOVS     r6,#1
        0x000000ee:    4233        3B      TST      r3,r6
        0x000000f0:    d000        ..      BEQ      0xf4 ; __scatterload_null + 28
        0x000000f2:    1afb        ..      SUBS     r3,r7,r3
        0x000000f4:    46a2        .F      MOV      r10,r4
        0x000000f6:    46ab        .F      MOV      r11,r5
        0x000000f8:    4333        3C      ORRS     r3,r3,r6
        0x000000fa:    4718        .G      BX       r3
    $d
        0x000000fc:    00000d68    h...    DCD    3432
        0x00000100:    00000d88    ....    DCD    3464
    $t
    !!handler_copy
    __scatterload_copy
        0x00000104:    3a10        .:      SUBS     r2,r2,#0x10
        0x00000106:    d302        ..      BCC      0x10e ; __scatterload_copy + 10
        0x00000108:    c878        x.      LDM      r0!,{r3-r6}
        0x0000010a:    c178        x.      STM      r1!,{r3-r6}
        0x0000010c:    d8fa        ..      BHI      __scatterload_copy ; 0x104
        0x0000010e:    0752        R.      LSLS     r2,r2,#29
        0x00000110:    d301        ..      BCC      0x116 ; __scatterload_copy + 18
        0x00000112:    c830        0.      LDM      r0!,{r4,r5}
        0x00000114:    c130        0.      STM      r1!,{r4,r5}
        0x00000116:    d501        ..      BPL      0x11c ; __scatterload_copy + 24
        0x00000118:    6804        .h      LDR      r4,[r0,#0]
        0x0000011a:    600c        .`      STR      r4,[r1,#0]
        0x0000011c:    4770        pG      BX       lr
        0x0000011e:    0000        ..      MOVS     r0,r0
    !!handler_zi
    __scatterload_zeroinit
        0x00000120:    2300        .#      MOVS     r3,#0
        0x00000122:    2400        .$      MOVS     r4,#0
        0x00000124:    2500        .%      MOVS     r5,#0
        0x00000126:    2600        .&      MOVS     r6,#0
        0x00000128:    3a10        .:      SUBS     r2,r2,#0x10
        0x0000012a:    d301        ..      BCC      0x130 ; __scatterload_zeroinit + 16
        0x0000012c:    c178        x.      STM      r1!,{r3-r6}
        0x0000012e:    d8fb        ..      BHI      0x128 ; __scatterload_zeroinit + 8
        0x00000130:    0752        R.      LSLS     r2,r2,#29
        0x00000132:    d300        ..      BCC      0x136 ; __scatterload_zeroinit + 22
        0x00000134:    c130        0.      STM      r1!,{r4,r5}
        0x00000136:    d500        ..      BPL      0x13a ; __scatterload_zeroinit + 26
        0x00000138:    600b        .`      STR      r3,[r1,#0]
        0x0000013a:    4770        pG      BX       lr
    .ARM.Collect$$_printf_percent$$00000000
    _printf_percent
        0x0000013c:    b510        ..      PUSH     {r4,lr}
    .ARM.Collect$$_printf_percent$$0000000C
    _printf_x
        0x0000013e:    2978        x)      CMP      r1,#0x78
        0x00000140:    d102        ..      BNE      _printf_percent_end ; 0x148
        0x00000142:    f000f865    ..e.    BL       _printf_int_hex ; 0x210
        0x00000146:    bd10        ..      POP      {r4,pc}
    .ARM.Collect$$_printf_percent$$00000017
    _printf_percent_end
        0x00000148:    2000        .       MOVS     r0,#0
        0x0000014a:    bd10        ..      POP      {r4,pc}
    .ARM.Collect$$libinit$$00000000
    __rt_lib_init
        0x0000014c:    b51f        ..      PUSH     {r0-r4,lr}
    .ARM.Collect$$libinit$$00000002
    .ARM.Collect$$libinit$$00000004
    .ARM.Collect$$libinit$$0000000A
    .ARM.Collect$$libinit$$0000000C
    .ARM.Collect$$libinit$$0000000E
    .ARM.Collect$$libinit$$00000011
    .ARM.Collect$$libinit$$00000013
    .ARM.Collect$$libinit$$00000015
    .ARM.Collect$$libinit$$00000017
    .ARM.Collect$$libinit$$00000019
    .ARM.Collect$$libinit$$0000001B
    .ARM.Collect$$libinit$$0000001D
    .ARM.Collect$$libinit$$0000001F
    .ARM.Collect$$libinit$$00000021
    .ARM.Collect$$libinit$$00000023
    .ARM.Collect$$libinit$$00000025
    .ARM.Collect$$libinit$$0000002C
    .ARM.Collect$$libinit$$0000002E
    .ARM.Collect$$libinit$$00000030
    .ARM.Collect$$libinit$$00000032
    .ARM.Collect$$libinit$$00000033
    __rt_lib_init_alloca_1
    __rt_lib_init_argv_1
    __rt_lib_init_atexit_1
    __rt_lib_init_clock_1
    __rt_lib_init_cpp_1
    __rt_lib_init_exceptions_1
    __rt_lib_init_fp_1
    __rt_lib_init_fp_trap_1
    __rt_lib_init_getenv_1
    __rt_lib_init_heap_1
    __rt_lib_init_lc_collate_1
    __rt_lib_init_lc_ctype_1
    __rt_lib_init_lc_monetary_1
    __rt_lib_init_lc_numeric_1
    __rt_lib_init_lc_time_1
    __rt_lib_init_preinit_1
    __rt_lib_init_rand_1
    __rt_lib_init_return
    __rt_lib_init_signal_1
    __rt_lib_init_stdio_1
    __rt_lib_init_user_alloc_1
        0x0000014e:    bd1f        ..      POP      {r0-r4,pc}
    .ARM.Collect$$libshutdown$$00000000
    __rt_lib_shutdown
        0x00000150:    b510        ..      PUSH     {r4,lr}
    .ARM.Collect$$libshutdown$$00000002
    .ARM.Collect$$libshutdown$$00000004
    .ARM.Collect$$libshutdown$$00000007
    .ARM.Collect$$libshutdown$$0000000A
    .ARM.Collect$$libshutdown$$0000000C
    .ARM.Collect$$libshutdown$$0000000F
    .ARM.Collect$$libshutdown$$00000010
    __rt_lib_shutdown_cpp_1
    __rt_lib_shutdown_fp_trap_1
    __rt_lib_shutdown_heap_1
    __rt_lib_shutdown_return
    __rt_lib_shutdown_signal_1
    __rt_lib_shutdown_stdio_1
    __rt_lib_shutdown_user_alloc_1
        0x00000152:    bd10        ..      POP      {r4,pc}
    .ARM.Collect$$rtentry$$00000000
    .ARM.Collect$$rtentry$$00000002
    .ARM.Collect$$rtentry$$00000004
    __rt_entry
    __rt_entry_presh_1
    __rt_entry_sh
        0x00000154:    f000fa44    ..D.    BL       __user_setup_stackheap ; 0x5e0
        0x00000158:    4611        .F      MOV      r1,r2
    .ARM.Collect$$rtentry$$00000009
    .ARM.Collect$$rtentry$$0000000A
    __rt_entry_li
    __rt_entry_postsh_1
        0x0000015a:    f7fffff7    ....    BL       __rt_lib_init ; 0x14c
    .ARM.Collect$$rtentry$$0000000C
    .ARM.Collect$$rtentry$$0000000D
    __rt_entry_main
    __rt_entry_postli_1
        0x0000015e:    f000fd37    ..7.    BL       main ; 0xbd0
        0x00000162:    f000fa5c    ..\.    BL       exit ; 0x61e
    .ARM.Collect$$rtexit$$00000000
    __rt_exit
        0x00000166:    b403        ..      PUSH     {r0,r1}
    .ARM.Collect$$rtexit$$00000002
    .ARM.Collect$$rtexit$$00000003
    __rt_exit_ls
    __rt_exit_prels_1
        0x00000168:    f7fffff2    ....    BL       __rt_lib_shutdown ; 0x150
    .ARM.Collect$$rtexit$$00000004
    __rt_exit_exit
        0x0000016c:    bc03        ..      POP      {r0,r1}
        0x0000016e:    f000fa63    ..c.    BL       _sys_exit ; 0x638
        0x00000172:    0000        ..      MOVS     r0,r0
    .emb_text
    HardFault_Handler
        0x00000174:    2004        .       MOVS     r0,#4
        0x00000176:    4671        qF      MOV      r1,lr
        0x00000178:    4208        .B      TST      r0,r1
        0x0000017a:    d002        ..      BEQ      0x182 ; HardFault_Handler + 14
        0x0000017c:    f3ef8009    ....    MRS      r0,PSP
        0x00000180:    e001        ..      B        0x186 ; HardFault_Handler + 18
        0x00000182:    f3ef8008    ....    MRS      r0,MSP
        0x00000186:    4671        qF      MOV      r1,lr
        0x00000188:    4a00        .J      LDR      r2,[pc,#0] ; [0x18c] = 0x861
        0x0000018a:    4710        .G      BX       r2
    $d
        0x0000018c:    00000861    a...    DCD    2145
    $t
    .text
    Reset_Handler
        0x00000190:    480d        .H      LDR      r0,[pc,#52] ; [0x1c8] = 0x50000100
        0x00000192:    490e        .I      LDR      r1,[pc,#56] ; [0x1cc] = 0x59
        0x00000194:    6001        .`      STR      r1,[r0,#0]
        0x00000196:    490e        .I      LDR      r1,[pc,#56] ; [0x1d0] = 0x16
        0x00000198:    6001        .`      STR      r1,[r0,#0]
        0x0000019a:    490e        .I      LDR      r1,[pc,#56] ; [0x1d4] = 0x88
        0x0000019c:    6001        .`      STR      r1,[r0,#0]
        0x0000019e:    4a0e        .J      LDR      r2,[pc,#56] ; [0x1d8] = 0x50000024
        0x000001a0:    490e        .I      LDR      r1,[pc,#56] ; [0x1dc] = 0x5aa5
        0x000001a2:    6011        .`      STR      r1,[r2,#0]
        0x000001a4:    2100        .!      MOVS     r1,#0
        0x000001a6:    6001        .`      STR      r1,[r0,#0]
        0x000001a8:    480d        .H      LDR      r0,[pc,#52] ; [0x1e0] = 0x9c1
        0x000001aa:    4780        .G      BLX      r0
        0x000001ac:    480d        .H      LDR      r0,[pc,#52] ; [0x1e4] = 0xc1
        0x000001ae:    4700        .G      BX       r0
    NMI_Handler
        0x000001b0:    e7fe        ..      B        NMI_Handler ; 0x1b0
        0x000001b2:    e7fe        ..      B        0x1b2 ; NMI_Handler + 2
    SVC_Handler
        0x000001b4:    e7fe        ..      B        SVC_Handler ; 0x1b4
    PendSV_Handler
        0x000001b6:    e7fe        ..      B        PendSV_Handler ; 0x1b6
    SysTick_Handler
        0x000001b8:    e7fe        ..      B        SysTick_Handler ; 0x1b8
    Default_Handler
    ACMP01_IRQHandler
    ACMP23_IRQHandler
    ADC_IRQHandler
    BOD_IRQHandler
    EINT0_IRQHandler
    EINT1_IRQHandler
    GPIOP0P1_IRQHandler
    GPIOP2P3P4_IRQHandler
    I2C0_IRQHandler
    I2C1_IRQHandler
    PWMA_IRQHandler
    PWMB_IRQHandler
    PWRWU_IRQHandler
    RTC_IRQHandler
    SPI0_IRQHandler
    SPI1_IRQHandler
    TMR0_IRQHandler
    TMR1_IRQHandler
    TMR2_IRQHandler
    TMR3_IRQHandler
    UART1_IRQHandler
    WDT_IRQHandler
        0x000001ba:    e7fe        ..      B        Default_Handler ; 0x1ba
    __user_initial_stackheap
        0x000001bc:    480a        .H      LDR      r0,[pc,#40] ; [0x1e8] = 0x200000f8
        0x000001be:    490b        .I      LDR      r1,[pc,#44] ; [0x1ec] = 0x200002f8
        0x000001c0:    4a09        .J      LDR      r2,[pc,#36] ; [0x1e8] = 0x200000f8
        0x000001c2:    4b0b        .K      LDR      r3,[pc,#44] ; [0x1f0] = 0x200000f8
        0x000001c4:    4770        pG      BX       lr
    $d
        0x000001c6:    0000        ..      DCW    0
        0x000001c8:    50000100    ...P    DCD    1342177536
        0x000001cc:    00000059    Y...    DCD    89
        0x000001d0:    00000016    ....    DCD    22
        0x000001d4:    00000088    ....    DCD    136
        0x000001d8:    50000024    $..P    DCD    1342177316
        0x000001dc:    00005aa5    .Z..    DCD    23205
        0x000001e0:    000009c1    ....    DCD    2497
        0x000001e4:    000000c1    ....    DCD    193
        0x000001e8:    200000f8    ...     DCD    536871160
        0x000001ec:    200002f8    ...     DCD    536871672
        0x000001f0:    200000f8    ...     DCD    536871160
    $t
    .text
    __2printf
        0x000001f4:    b40f        ..      PUSH     {r0-r3}
        0x000001f6:    4905        .I      LDR      r1,[pc,#20] ; [0x20c] = 0x20000020
        0x000001f8:    b510        ..      PUSH     {r4,lr}
        0x000001fa:    aa03        ..      ADD      r2,sp,#0xc
        0x000001fc:    9802        ..      LDR      r0,[sp,#8]
        0x000001fe:    f000f9c3    ....    BL       _printf_char_file ; 0x588
        0x00000202:    bc10        ..      POP      {r4}
        0x00000204:    bc08        ..      POP      {r3}
        0x00000206:    b004        ..      ADD      sp,sp,#0x10
        0x00000208:    4718        .G      BX       r3
    $d
        0x0000020a:    0000        ..      DCW    0
        0x0000020c:    20000020     ..     DCD    536870944
    $t
    .text
    _printf_int_hex
    _printf_longlong_hex
        0x00000210:    b570        p.      PUSH     {r4-r6,lr}
        0x00000212:    4604        .F      MOV      r4,r0
        0x00000214:    460d        .F      MOV      r5,r1
        0x00000216:    4621        !F      MOV      r1,r4
        0x00000218:    6810        .h      LDR      r0,[r2,#0]
        0x0000021a:    46c0        .F      MOV      r8,r8
        0x0000021c:    46c0        .F      MOV      r8,r8
        0x0000021e:    8821        !.      LDRH     r1,[r4,#0]
        0x00000220:    0509        ..      LSLS     r1,r1,#20
        0x00000222:    d502        ..      BPL      0x22a ; _printf_int_hex + 26
        0x00000224:    4a0f        .J      LDR      r2,[pc,#60] ; [0x264] = 0xc12
        0x00000226:    447a        zD      ADD      r2,r2,pc
        0x00000228:    e002        ..      B        0x230 ; _printf_int_hex + 32
        0x0000022a:    4a0e        .J      LDR      r2,[pc,#56] ; [0x264] = 0xc12
        0x0000022c:    447a        zD      ADD      r2,r2,pc
        0x0000022e:    320e        .2      ADDS     r2,r2,#0xe
        0x00000230:    4623        #F      MOV      r3,r4
        0x00000232:    2100        .!      MOVS     r1,#0
        0x00000234:    3324        $3      ADDS     r3,r3,#0x24
        0x00000236:    e005        ..      B        0x244 ; _printf_int_hex + 52
        0x00000238:    0706        ..      LSLS     r6,r0,#28
        0x0000023a:    0900        ..      LSRS     r0,r0,#4
        0x0000023c:    0f36        6.      LSRS     r6,r6,#28
        0x0000023e:    5d96        .]      LDRB     r6,[r2,r6]
        0x00000240:    545e        ^T      STRB     r6,[r3,r1]
        0x00000242:    1c49        I.      ADDS     r1,r1,#1
        0x00000244:    2800        .(      CMP      r0,#0
        0x00000246:    d1f7        ..      BNE      0x238 ; _printf_int_hex + 40
        0x00000248:    7820         x      LDRB     r0,[r4,#0]
        0x0000024a:    2300        .#      MOVS     r3,#0
        0x0000024c:    0700        ..      LSLS     r0,r0,#28
        0x0000024e:    d505        ..      BPL      0x25c ; _printf_int_hex + 76
        0x00000250:    2d70        p-      CMP      r5,#0x70
        0x00000252:    d003        ..      BEQ      0x25c ; _printf_int_hex + 76
        0x00000254:    2900        .)      CMP      r1,#0
        0x00000256:    d001        ..      BEQ      0x25c ; _printf_int_hex + 76
        0x00000258:    2302        .#      MOVS     r3,#2
        0x0000025a:    3211        .2      ADDS     r2,r2,#0x11
        0x0000025c:    4620         F      MOV      r0,r4
        0x0000025e:    f000f93a    ..:.    BL       _printf_int_common ; 0x4d6
        0x00000262:    bd70        p.      POP      {r4-r6,pc}
    $d
        0x00000264:    00000c12    ....    DCD    3090
    $t
    .text
    __printf
        0x00000268:    b5f3        ..      PUSH     {r0,r1,r4-r7,lr}
        0x0000026a:    4604        .F      MOV      r4,r0
        0x0000026c:    2000        .       MOVS     r0,#0
        0x0000026e:    b081        ..      SUB      sp,sp,#4
        0x00000270:    6220         b      STR      r0,[r4,#0x20]
        0x00000272:    4620         F      MOV      r0,r4
        0x00000274:    68e1        .h      LDR      r1,[r4,#0xc]
        0x00000276:    4788        .G      BLX      r1
        0x00000278:    2800        .(      CMP      r0,#0
        0x0000027a:    d07a        z.      BEQ      0x372 ; __printf + 266
        0x0000027c:    2825        %(      CMP      r0,#0x25
        0x0000027e:    d002        ..      BEQ      0x286 ; __printf + 30
        0x00000280:    6862        bh      LDR      r2,[r4,#4]
        0x00000282:    68a1        .h      LDR      r1,[r4,#8]
        0x00000284:    e071        q.      B        0x36a ; __printf + 258
        0x00000286:    68e1        .h      LDR      r1,[r4,#0xc]
        0x00000288:    4620         F      MOV      r0,r4
        0x0000028a:    2500        .%      MOVS     r5,#0
        0x0000028c:    4788        .G      BLX      r1
        0x0000028e:    4606        .F      MOV      r6,r0
        0x00000290:    2000        .       MOVS     r0,#0
        0x00000292:    61e0        .a      STR      r0,[r4,#0x1c]
        0x00000294:    4607        .F      MOV      r7,r0
        0x00000296:    61a0        .a      STR      r0,[r4,#0x18]
        0x00000298:    2e2a        *.      CMP      r6,#0x2a
        0x0000029a:    d00a        ..      BEQ      0x2b2 ; __printf + 74
        0x0000029c:    4630        0F      MOV      r0,r6
        0x0000029e:    f000fc3b    ..;.    BL       _is_digit ; 0xb18
        0x000002a2:    2800        .(      CMP      r0,#0
        0x000002a4:    d027        '.      BEQ      0x2f6 ; __printf + 142
        0x000002a6:    00b8        ..      LSLS     r0,r7,#2
        0x000002a8:    1900        ..      ADDS     r0,r0,r4
        0x000002aa:    3e30        0>      SUBS     r6,r6,#0x30
        0x000002ac:    9000        ..      STR      r0,[sp,#0]
        0x000002ae:    6186        .a      STR      r6,[r0,#0x18]
        0x000002b0:    e019        ..      B        0x2e6 ; __printf + 126
        0x000002b2:    9802        ..      LDR      r0,[sp,#8]
        0x000002b4:    00ba        ..      LSLS     r2,r7,#2
        0x000002b6:    1912        ..      ADDS     r2,r2,r4
        0x000002b8:    c802        ..      LDM      r0!,{r1}
        0x000002ba:    6191        .a      STR      r1,[r2,#0x18]
        0x000002bc:    9002        ..      STR      r0,[sp,#8]
        0x000002be:    4620         F      MOV      r0,r4
        0x000002c0:    68e1        .h      LDR      r1,[r4,#0xc]
        0x000002c2:    4788        .G      BLX      r1
        0x000002c4:    2f01        ./      CMP      r7,#1
        0x000002c6:    4606        .F      MOV      r6,r0
        0x000002c8:    d117        ..      BNE      0x2fa ; __printf + 146
        0x000002ca:    69e0        .i      LDR      r0,[r4,#0x1c]
        0x000002cc:    2800        .(      CMP      r0,#0
        0x000002ce:    da1f        ..      BGE      0x310 ; __printf + 168
        0x000002d0:    2020                MOVS     r0,#0x20
        0x000002d2:    4385        .C      BICS     r5,r5,r0
        0x000002d4:    e01c        ..      B        0x310 ; __printf + 168
        0x000002d6:    9800        ..      LDR      r0,[sp,#0]
        0x000002d8:    210a        .!      MOVS     r1,#0xa
        0x000002da:    6980        .i      LDR      r0,[r0,#0x18]
        0x000002dc:    4348        HC      MULS     r0,r1,r0
        0x000002de:    9900        ..      LDR      r1,[sp,#0]
        0x000002e0:    1980        ..      ADDS     r0,r0,r6
        0x000002e2:    3830        08      SUBS     r0,r0,#0x30
        0x000002e4:    6188        .a      STR      r0,[r1,#0x18]
        0x000002e6:    4620         F      MOV      r0,r4
        0x000002e8:    68e1        .h      LDR      r1,[r4,#0xc]
        0x000002ea:    4788        .G      BLX      r1
        0x000002ec:    4606        .F      MOV      r6,r0
        0x000002ee:    f000fc13    ....    BL       _is_digit ; 0xb18
        0x000002f2:    2800        .(      CMP      r0,#0
        0x000002f4:    d1ef        ..      BNE      0x2d6 ; __printf + 110
        0x000002f6:    2f01        ./      CMP      r7,#1
        0x000002f8:    d00a        ..      BEQ      0x310 ; __printf + 168
        0x000002fa:    2e2e        ..      CMP      r6,#0x2e
        0x000002fc:    d108        ..      BNE      0x310 ; __printf + 168
        0x000002fe:    4620         F      MOV      r0,r4
        0x00000300:    68e1        .h      LDR      r1,[r4,#0xc]
        0x00000302:    4788        .G      BLX      r1
        0x00000304:    4606        .F      MOV      r6,r0
        0x00000306:    2020                MOVS     r0,#0x20
        0x00000308:    4305        .C      ORRS     r5,r5,r0
        0x0000030a:    1c7f        ..      ADDS     r7,r7,#1
        0x0000030c:    2f02        ./      CMP      r7,#2
        0x0000030e:    dbc3        ..      BLT      0x298 ; __printf + 48
        0x00000310:    69a0        .i      LDR      r0,[r4,#0x18]
        0x00000312:    2800        .(      CMP      r0,#0
        0x00000314:    da03        ..      BGE      0x31e ; __printf + 182
        0x00000316:    4240        @B      RSBS     r0,r0,#0
        0x00000318:    61a0        .a      STR      r0,[r4,#0x18]
        0x0000031a:    2001        .       MOVS     r0,#1
        0x0000031c:    4305        .C      ORRS     r5,r5,r0
        0x0000031e:    07e8        ..      LSLS     r0,r5,#31
        0x00000320:    d001        ..      BEQ      0x326 ; __printf + 190
        0x00000322:    2010        .       MOVS     r0,#0x10
        0x00000324:    4385        .C      BICS     r5,r5,r0
        0x00000326:    2e00        ..      CMP      r6,#0
        0x00000328:    d023        #.      BEQ      0x372 ; __printf + 266
        0x0000032a:    4630        0F      MOV      r0,r6
        0x0000032c:    3841        A8      SUBS     r0,r0,#0x41
        0x0000032e:    2819        .(      CMP      r0,#0x19
        0x00000330:    d803        ..      BHI      0x33a ; __printf + 210
        0x00000332:    2001        .       MOVS     r0,#1
        0x00000334:    02c0        ..      LSLS     r0,r0,#11
        0x00000336:    4305        .C      ORRS     r5,r5,r0
        0x00000338:    3620         6      ADDS     r6,r6,#0x20
        0x0000033a:    4620         F      MOV      r0,r4
        0x0000033c:    6025        %`      STR      r5,[r4,#0]
        0x0000033e:    4631        1F      MOV      r1,r6
        0x00000340:    9a02        ..      LDR      r2,[sp,#8]
        0x00000342:    4615        .F      MOV      r5,r2
        0x00000344:    f7fffefa    ....    BL       _printf_percent ; 0x13c
        0x00000348:    2800        .(      CMP      r0,#0
        0x0000034a:    d00b        ..      BEQ      0x364 ; __printf + 252
        0x0000034c:    2801        .(      CMP      r0,#1
        0x0000034e:    d006        ..      BEQ      0x35e ; __printf + 246
        0x00000350:    1ded        ..      ADDS     r5,r5,#7
        0x00000352:    08e8        ..      LSRS     r0,r5,#3
        0x00000354:    00c0        ..      LSLS     r0,r0,#3
        0x00000356:    3008        .0      ADDS     r0,r0,#8
        0x00000358:    9002        ..      STR      r0,[sp,#8]
        0x0000035a:    e78a        ..      B        0x272 ; __printf + 10
        0x0000035c:    e009        ..      B        0x372 ; __printf + 266
        0x0000035e:    1d2d        -.      ADDS     r5,r5,#4
        0x00000360:    9502        ..      STR      r5,[sp,#8]
        0x00000362:    e786        ..      B        0x272 ; __printf + 10
        0x00000364:    6862        bh      LDR      r2,[r4,#4]
        0x00000366:    4630        0F      MOV      r0,r6
        0x00000368:    68a1        .h      LDR      r1,[r4,#8]
        0x0000036a:    4790        .G      BLX      r2
        0x0000036c:    6a20         j      LDR      r0,[r4,#0x20]
        0x0000036e:    1c40        @.      ADDS     r0,r0,#1
        0x00000370:    e77e        ~.      B        0x270 ; __printf + 8
        0x00000372:    6a20         j      LDR      r0,[r4,#0x20]
        0x00000374:    bdfe        ..      POP      {r1-r7,pc}
    .text
    __aeabi_uidiv
    __aeabi_uidivmod
        0x00000376:    2200        ."      MOVS     r2,#0
        0x00000378:    0903        ..      LSRS     r3,r0,#4
        0x0000037a:    428b        .B      CMP      r3,r1
        0x0000037c:    d32c        ,.      BCC      0x3d8 ; __aeabi_idiv + 78
        0x0000037e:    0a03        ..      LSRS     r3,r0,#8
        0x00000380:    428b        .B      CMP      r3,r1
        0x00000382:    d311        ..      BCC      0x3a8 ; __aeabi_idiv + 30
        0x00000384:    2300        .#      MOVS     r3,#0
        0x00000386:    469c        .F      MOV      r12,r3
        0x00000388:    e04e        N.      B        0x428 ; __aeabi_idiv + 158
    __aeabi_idiv
    __aeabi_idivmod
        0x0000038a:    4603        .F      MOV      r3,r0
        0x0000038c:    430b        .C      ORRS     r3,r3,r1
        0x0000038e:    d43c        <.      BMI      0x40a ; __aeabi_idiv + 128
        0x00000390:    2200        ."      MOVS     r2,#0
        0x00000392:    0843        C.      LSRS     r3,r0,#1
        0x00000394:    428b        .B      CMP      r3,r1
        0x00000396:    d331        1.      BCC      0x3fc ; __aeabi_idiv + 114
        0x00000398:    0903        ..      LSRS     r3,r0,#4
        0x0000039a:    428b        .B      CMP      r3,r1
        0x0000039c:    d31c        ..      BCC      0x3d8 ; __aeabi_idiv + 78
        0x0000039e:    0a03        ..      LSRS     r3,r0,#8
        0x000003a0:    428b        .B      CMP      r3,r1
        0x000003a2:    d301        ..      BCC      0x3a8 ; __aeabi_idiv + 30
        0x000003a4:    4694        .F      MOV      r12,r2
        0x000003a6:    e03f        ?.      B        0x428 ; __aeabi_idiv + 158
        0x000003a8:    09c3        ..      LSRS     r3,r0,#7
        0x000003aa:    428b        .B      CMP      r3,r1
        0x000003ac:    d301        ..      BCC      0x3b2 ; __aeabi_idiv + 40
        0x000003ae:    01cb        ..      LSLS     r3,r1,#7
        0x000003b0:    1ac0        ..      SUBS     r0,r0,r3
        0x000003b2:    4152        RA      ADCS     r2,r2,r2
        0x000003b4:    0983        ..      LSRS     r3,r0,#6
        0x000003b6:    428b        .B      CMP      r3,r1
        0x000003b8:    d301        ..      BCC      0x3be ; __aeabi_idiv + 52
        0x000003ba:    018b        ..      LSLS     r3,r1,#6
        0x000003bc:    1ac0        ..      SUBS     r0,r0,r3
        0x000003be:    4152        RA      ADCS     r2,r2,r2
        0x000003c0:    0943        C.      LSRS     r3,r0,#5
        0x000003c2:    428b        .B      CMP      r3,r1
        0x000003c4:    d301        ..      BCC      0x3ca ; __aeabi_idiv + 64
        0x000003c6:    014b        K.      LSLS     r3,r1,#5
        0x000003c8:    1ac0        ..      SUBS     r0,r0,r3
        0x000003ca:    4152        RA      ADCS     r2,r2,r2
        0x000003cc:    0903        ..      LSRS     r3,r0,#4
        0x000003ce:    428b        .B      CMP      r3,r1
        0x000003d0:    d301        ..      BCC      0x3d6 ; __aeabi_idiv + 76
        0x000003d2:    010b        ..      LSLS     r3,r1,#4
        0x000003d4:    1ac0        ..      SUBS     r0,r0,r3
        0x000003d6:    4152        RA      ADCS     r2,r2,r2
        0x000003d8:    08c3        ..      LSRS     r3,r0,#3
        0x000003da:    428b        .B      CMP      r3,r1
        0x000003dc:    d301        ..      BCC      0x3e2 ; __aeabi_idiv + 88
        0x000003de:    00cb        ..      LSLS     r3,r1,#3
        0x000003e0:    1ac0        ..      SUBS     r0,r0,r3
        0x000003e2:    4152        RA      ADCS     r2,r2,r2
        0x000003e4:    0883        ..      LSRS     r3,r0,#2
        0x000003e6:    428b        .B      CMP      r3,r1
        0x000003e8:    d301        ..      BCC      0x3ee ; __aeabi_idiv + 100
        0x000003ea:    008b        ..      LSLS     r3,r1,#2
        0x000003ec:    1ac0        ..      SUBS     r0,r0,r3
        0x000003ee:    4152        RA      ADCS     r2,r2,r2
        0x000003f0:    0843        C.      LSRS     r3,r0,#1
        0x000003f2:    428b        .B      CMP      r3,r1
        0x000003f4:    d301        ..      BCC      0x3fa ; __aeabi_idiv + 112
        0x000003f6:    004b        K.      LSLS     r3,r1,#1
        0x000003f8:    1ac0        ..      SUBS     r0,r0,r3
        0x000003fa:    4152        RA      ADCS     r2,r2,r2
        0x000003fc:    1a41        A.      SUBS     r1,r0,r1
        0x000003fe:    d200        ..      BCS      0x402 ; __aeabi_idiv + 120
        0x00000400:    4601        .F      MOV      r1,r0
        0x00000402:    4152        RA      ADCS     r2,r2,r2
        0x00000404:    4610        .F      MOV      r0,r2
        0x00000406:    4770        pG      BX       lr
        0x00000408:    e05d        ].      B        0x4c6 ; __aeabi_idiv + 316
        0x0000040a:    0fca        ..      LSRS     r2,r1,#31
        0x0000040c:    d000        ..      BEQ      0x410 ; __aeabi_idiv + 134
        0x0000040e:    4249        IB      RSBS     r1,r1,#0
        0x00000410:    1003        ..      ASRS     r3,r0,#32
        0x00000412:    d300        ..      BCC      0x416 ; __aeabi_idiv + 140
        0x00000414:    4240        @B      RSBS     r0,r0,#0
        0x00000416:    4053        S@      EORS     r3,r3,r2
        0x00000418:    2200        ."      MOVS     r2,#0
        0x0000041a:    469c        .F      MOV      r12,r3
        0x0000041c:    0903        ..      LSRS     r3,r0,#4
        0x0000041e:    428b        .B      CMP      r3,r1
        0x00000420:    d32d        -.      BCC      0x47e ; __aeabi_idiv + 244
        0x00000422:    0a03        ..      LSRS     r3,r0,#8
        0x00000424:    428b        .B      CMP      r3,r1
        0x00000426:    d312        ..      BCC      0x44e ; __aeabi_idiv + 196
        0x00000428:    22fc        ."      MOVS     r2,#0xfc
        0x0000042a:    0189        ..      LSLS     r1,r1,#6
        0x0000042c:    ba12        ..      REV      r2,r2
        0x0000042e:    0a03        ..      LSRS     r3,r0,#8
        0x00000430:    428b        .B      CMP      r3,r1
        0x00000432:    d30c        ..      BCC      0x44e ; __aeabi_idiv + 196
        0x00000434:    0189        ..      LSLS     r1,r1,#6
        0x00000436:    1192        ..      ASRS     r2,r2,#6
        0x00000438:    428b        .B      CMP      r3,r1
        0x0000043a:    d308        ..      BCC      0x44e ; __aeabi_idiv + 196
        0x0000043c:    0189        ..      LSLS     r1,r1,#6
        0x0000043e:    1192        ..      ASRS     r2,r2,#6
        0x00000440:    428b        .B      CMP      r3,r1
        0x00000442:    d304        ..      BCC      0x44e ; __aeabi_idiv + 196
        0x00000444:    0189        ..      LSLS     r1,r1,#6
        0x00000446:    d03a        :.      BEQ      0x4be ; __aeabi_idiv + 308
        0x00000448:    1192        ..      ASRS     r2,r2,#6
        0x0000044a:    e000        ..      B        0x44e ; __aeabi_idiv + 196
        0x0000044c:    0989        ..      LSRS     r1,r1,#6
        0x0000044e:    09c3        ..      LSRS     r3,r0,#7
        0x00000450:    428b        .B      CMP      r3,r1
        0x00000452:    d301        ..      BCC      0x458 ; __aeabi_idiv + 206
        0x00000454:    01cb        ..      LSLS     r3,r1,#7
        0x00000456:    1ac0        ..      SUBS     r0,r0,r3
        0x00000458:    4152        RA      ADCS     r2,r2,r2
        0x0000045a:    0983        ..      LSRS     r3,r0,#6
        0x0000045c:    428b        .B      CMP      r3,r1
        0x0000045e:    d301        ..      BCC      0x464 ; __aeabi_idiv + 218
        0x00000460:    018b        ..      LSLS     r3,r1,#6
        0x00000462:    1ac0        ..      SUBS     r0,r0,r3
        0x00000464:    4152        RA      ADCS     r2,r2,r2
        0x00000466:    0943        C.      LSRS     r3,r0,#5
        0x00000468:    428b        .B      CMP      r3,r1
        0x0000046a:    d301        ..      BCC      0x470 ; __aeabi_idiv + 230
        0x0000046c:    014b        K.      LSLS     r3,r1,#5
        0x0000046e:    1ac0        ..      SUBS     r0,r0,r3
        0x00000470:    4152        RA      ADCS     r2,r2,r2
        0x00000472:    0903        ..      LSRS     r3,r0,#4
        0x00000474:    428b        .B      CMP      r3,r1
        0x00000476:    d301        ..      BCC      0x47c ; __aeabi_idiv + 242
        0x00000478:    010b        ..      LSLS     r3,r1,#4
        0x0000047a:    1ac0        ..      SUBS     r0,r0,r3
        0x0000047c:    4152        RA      ADCS     r2,r2,r2
        0x0000047e:    08c3        ..      LSRS     r3,r0,#3
        0x00000480:    428b        .B      CMP      r3,r1
        0x00000482:    d301        ..      BCC      0x488 ; __aeabi_idiv + 254
        0x00000484:    00cb        ..      LSLS     r3,r1,#3
        0x00000486:    1ac0        ..      SUBS     r0,r0,r3
        0x00000488:    4152        RA      ADCS     r2,r2,r2
        0x0000048a:    0883        ..      LSRS     r3,r0,#2
        0x0000048c:    428b        .B      CMP      r3,r1
        0x0000048e:    d301        ..      BCC      0x494 ; __aeabi_idiv + 266
        0x00000490:    008b        ..      LSLS     r3,r1,#2
        0x00000492:    1ac0        ..      SUBS     r0,r0,r3
        0x00000494:    4152        RA      ADCS     r2,r2,r2
        0x00000496:    d2d9        ..      BCS      0x44c ; __aeabi_idiv + 194
        0x00000498:    0843        C.      LSRS     r3,r0,#1
        0x0000049a:    428b        .B      CMP      r3,r1
        0x0000049c:    d301        ..      BCC      0x4a2 ; __aeabi_idiv + 280
        0x0000049e:    004b        K.      LSLS     r3,r1,#1
        0x000004a0:    1ac0        ..      SUBS     r0,r0,r3
        0x000004a2:    4152        RA      ADCS     r2,r2,r2
        0x000004a4:    1a41        A.      SUBS     r1,r0,r1
        0x000004a6:    d200        ..      BCS      0x4aa ; __aeabi_idiv + 288
        0x000004a8:    4601        .F      MOV      r1,r0
        0x000004aa:    4663        cF      MOV      r3,r12
        0x000004ac:    4152        RA      ADCS     r2,r2,r2
        0x000004ae:    105b        [.      ASRS     r3,r3,#1
        0x000004b0:    4610        .F      MOV      r0,r2
        0x000004b2:    d301        ..      BCC      0x4b8 ; __aeabi_idiv + 302
        0x000004b4:    4240        @B      RSBS     r0,r0,#0
        0x000004b6:    2b00        .+      CMP      r3,#0
        0x000004b8:    d500        ..      BPL      0x4bc ; __aeabi_idiv + 306
        0x000004ba:    4249        IB      RSBS     r1,r1,#0
        0x000004bc:    4770        pG      BX       lr
        0x000004be:    4663        cF      MOV      r3,r12
        0x000004c0:    105b        [.      ASRS     r3,r3,#1
        0x000004c2:    d300        ..      BCC      0x4c6 ; __aeabi_idiv + 316
        0x000004c4:    4240        @B      RSBS     r0,r0,#0
        0x000004c6:    b501        ..      PUSH     {r0,lr}
        0x000004c8:    2000        .       MOVS     r0,#0
        0x000004ca:    46c0        .F      MOV      r8,r8
        0x000004cc:    46c0        .F      MOV      r8,r8
        0x000004ce:    bd02        ..      POP      {r1,pc}
    .text
    __use_two_region_memory
        0x000004d0:    4770        pG      BX       lr
    __rt_heap_escrow$2region
        0x000004d2:    4770        pG      BX       lr
    __rt_heap_expand$2region
        0x000004d4:    4770        pG      BX       lr
    .text
    _printf_int_common
        0x000004d6:    b5ff        ..      PUSH     {r0-r7,lr}
        0x000004d8:    4604        .F      MOV      r4,r0
        0x000004da:    460d        .F      MOV      r5,r1
        0x000004dc:    b081        ..      SUB      sp,sp,#4
        0x000004de:    3024        $0      ADDS     r0,r0,#0x24
        0x000004e0:    9000        ..      STR      r0,[sp,#0]
        0x000004e2:    6821        !h      LDR      r1,[r4,#0]
        0x000004e4:    0688        ..      LSLS     r0,r1,#26
        0x000004e6:    d504        ..      BPL      0x4f2 ; _printf_int_common + 28
        0x000004e8:    2210        ."      MOVS     r2,#0x10
        0x000004ea:    69e0        .i      LDR      r0,[r4,#0x1c]
        0x000004ec:    4391        .C      BICS     r1,r1,r2
        0x000004ee:    6021        !`      STR      r1,[r4,#0]
        0x000004f0:    e000        ..      B        0x4f4 ; _printf_int_common + 30
        0x000004f2:    2001        .       MOVS     r0,#1
        0x000004f4:    42a8        .B      CMP      r0,r5
        0x000004f6:    dd01        ..      BLE      0x4fc ; _printf_int_common + 38
        0x000004f8:    1b47        G.      SUBS     r7,r0,r5
        0x000004fa:    e000        ..      B        0x4fe ; _printf_int_common + 40
        0x000004fc:    2700        .'      MOVS     r7,#0
        0x000004fe:    9804        ..      LDR      r0,[sp,#0x10]
        0x00000500:    69a1        .i      LDR      r1,[r4,#0x18]
        0x00000502:    197a        z.      ADDS     r2,r7,r5
        0x00000504:    1810        ..      ADDS     r0,r2,r0
        0x00000506:    1a08        ..      SUBS     r0,r1,r0
        0x00000508:    61a0        .a      STR      r0,[r4,#0x18]
        0x0000050a:    7820         x      LDRB     r0,[r4,#0]
        0x0000050c:    06c0        ..      LSLS     r0,r0,#27
        0x0000050e:    d402        ..      BMI      0x516 ; _printf_int_common + 64
        0x00000510:    4620         F      MOV      r0,r4
        0x00000512:    46c0        .F      MOV      r8,r8
        0x00000514:    46c0        .F      MOV      r8,r8
        0x00000516:    2600        .&      MOVS     r6,#0
        0x00000518:    e008        ..      B        0x52c ; _printf_int_common + 86
        0x0000051a:    9803        ..      LDR      r0,[sp,#0xc]
        0x0000051c:    6862        bh      LDR      r2,[r4,#4]
        0x0000051e:    68a1        .h      LDR      r1,[r4,#8]
        0x00000520:    5d80        .]      LDRB     r0,[r0,r6]
        0x00000522:    4790        .G      BLX      r2
        0x00000524:    6a20         j      LDR      r0,[r4,#0x20]
        0x00000526:    1c40        @.      ADDS     r0,r0,#1
        0x00000528:    1c76        v.      ADDS     r6,r6,#1
        0x0000052a:    6220         b      STR      r0,[r4,#0x20]
        0x0000052c:    9804        ..      LDR      r0,[sp,#0x10]
        0x0000052e:    4286        .B      CMP      r6,r0
        0x00000530:    dbf3        ..      BLT      0x51a ; _printf_int_common + 68
        0x00000532:    7820         x      LDRB     r0,[r4,#0]
        0x00000534:    06c0        ..      LSLS     r0,r0,#27
        0x00000536:    d50a        ..      BPL      0x54e ; _printf_int_common + 120
        0x00000538:    4620         F      MOV      r0,r4
        0x0000053a:    46c0        .F      MOV      r8,r8
        0x0000053c:    46c0        .F      MOV      r8,r8
        0x0000053e:    e006        ..      B        0x54e ; _printf_int_common + 120
        0x00000540:    6862        bh      LDR      r2,[r4,#4]
        0x00000542:    68a1        .h      LDR      r1,[r4,#8]
        0x00000544:    2030        0       MOVS     r0,#0x30
        0x00000546:    4790        .G      BLX      r2
        0x00000548:    6a20         j      LDR      r0,[r4,#0x20]
        0x0000054a:    1c40        @.      ADDS     r0,r0,#1
        0x0000054c:    6220         b      STR      r0,[r4,#0x20]
        0x0000054e:    4638        8F      MOV      r0,r7
        0x00000550:    1e7f        ..      SUBS     r7,r7,#1
        0x00000552:    2800        .(      CMP      r0,#0
        0x00000554:    dcf4        ..      BGT      0x540 ; _printf_int_common + 106
        0x00000556:    e007        ..      B        0x568 ; _printf_int_common + 146
        0x00000558:    9800        ..      LDR      r0,[sp,#0]
        0x0000055a:    6862        bh      LDR      r2,[r4,#4]
        0x0000055c:    68a1        .h      LDR      r1,[r4,#8]
        0x0000055e:    5d40        @]      LDRB     r0,[r0,r5]
        0x00000560:    4790        .G      BLX      r2
        0x00000562:    6a20         j      LDR      r0,[r4,#0x20]
        0x00000564:    1c40        @.      ADDS     r0,r0,#1
        0x00000566:    6220         b      STR      r0,[r4,#0x20]
        0x00000568:    4628        (F      MOV      r0,r5
        0x0000056a:    1e6d        m.      SUBS     r5,r5,#1
        0x0000056c:    2800        .(      CMP      r0,#0
        0x0000056e:    dcf3        ..      BGT      0x558 ; _printf_int_common + 130
        0x00000570:    4620         F      MOV      r0,r4
        0x00000572:    46c0        .F      MOV      r8,r8
        0x00000574:    46c0        .F      MOV      r8,r8
        0x00000576:    7820         x      LDRB     r0,[r4,#0]
        0x00000578:    0600        ..      LSLS     r0,r0,#24
        0x0000057a:    d502        ..      BPL      0x582 ; _printf_int_common + 172
        0x0000057c:    2002        .       MOVS     r0,#2
        0x0000057e:    b005        ..      ADD      sp,sp,#0x14
        0x00000580:    bdf0        ..      POP      {r4-r7,pc}
        0x00000582:    2001        .       MOVS     r0,#1
        0x00000584:    e7fb        ..      B        0x57e ; _printf_int_common + 168
        0x00000586:    0000        ..      MOVS     r0,r0
    .text
    _printf_char_file
        0x00000588:    4b08        .K      LDR      r3,[pc,#32] ; [0x5ac] = 0x633
        0x0000058a:    b570        p.      PUSH     {r4-r6,lr}
        0x0000058c:    460d        .F      MOV      r5,r1
        0x0000058e:    447b        {D      ADD      r3,r3,pc
        0x00000590:    f000f813    ....    BL       _printf_char_common ; 0x5ba
        0x00000594:    4604        .F      MOV      r4,r0
        0x00000596:    4628        (F      MOV      r0,r5
        0x00000598:    f000faf4    ....    BL       ferror ; 0xb84
        0x0000059c:    2800        .(      CMP      r0,#0
        0x0000059e:    d002        ..      BEQ      0x5a6 ; _printf_char_file + 30
        0x000005a0:    2000        .       MOVS     r0,#0
        0x000005a2:    43c0        .C      MVNS     r0,r0
        0x000005a4:    bd70        p.      POP      {r4-r6,pc}
        0x000005a6:    4620         F      MOV      r0,r4
        0x000005a8:    bd70        p.      POP      {r4-r6,pc}
    $d
        0x000005aa:    0000        ..      DCW    0
        0x000005ac:    00000633    3...    DCD    1587
    $t
    .text
    _printf_input_char
        0x000005b0:    6901        .i      LDR      r1,[r0,#0x10]
        0x000005b2:    1c4a        J.      ADDS     r2,r1,#1
        0x000005b4:    6102        .a      STR      r2,[r0,#0x10]
        0x000005b6:    7808        .x      LDRB     r0,[r1,#0]
        0x000005b8:    4770        pG      BX       lr
    _printf_char_common
        0x000005ba:    b500        ..      PUSH     {lr}
        0x000005bc:    b08f        ..      SUB      sp,sp,#0x3c
        0x000005be:    9102        ..      STR      r1,[sp,#8]
        0x000005c0:    2100        .!      MOVS     r1,#0
        0x000005c2:    9105        ..      STR      r1,[sp,#0x14]
        0x000005c4:    4905        .I      LDR      r1,[pc,#20] ; [0x5dc] = 0xffffffe5
        0x000005c6:    9301        ..      STR      r3,[sp,#4]
        0x000005c8:    4479        yD      ADD      r1,r1,pc
        0x000005ca:    9103        ..      STR      r1,[sp,#0xc]
        0x000005cc:    4611        .F      MOV      r1,r2
        0x000005ce:    9004        ..      STR      r0,[sp,#0x10]
        0x000005d0:    4668        hF      MOV      r0,sp
        0x000005d2:    f7fffe49    ..I.    BL       __printf ; 0x268
        0x000005d6:    b00f        ..      ADD      sp,sp,#0x3c
        0x000005d8:    bd00        ..      POP      {pc}
    $d
        0x000005da:    0000        ..      DCW    0
        0x000005dc:    ffffffe5    ....    DCD    4294967269
    $t
    .text
    __user_setup_stackheap
        0x000005e0:    4675        uF      MOV      r5,lr
        0x000005e2:    f000f825    ..%.    BL       __user_libspace ; 0x630
        0x000005e6:    46ae        .F      MOV      lr,r5
        0x000005e8:    0005        ..      MOVS     r5,r0
        0x000005ea:    4669        iF      MOV      r1,sp
        0x000005ec:    4653        SF      MOV      r3,r10
        0x000005ee:    08c0        ..      LSRS     r0,r0,#3
        0x000005f0:    00c0        ..      LSLS     r0,r0,#3
        0x000005f2:    4685        .F      MOV      sp,r0
        0x000005f4:    b018        ..      ADD      sp,sp,#0x60
        0x000005f6:    b520         .      PUSH     {r5,lr}
        0x000005f8:    f7fffde0    ....    BL       __user_initial_stackheap ; 0x1bc
        0x000005fc:    bc60        `.      POP      {r5,r6}
        0x000005fe:    2700        .'      MOVS     r7,#0
        0x00000600:    0849        I.      LSRS     r1,r1,#1
        0x00000602:    46b6        .F      MOV      lr,r6
        0x00000604:    2600        .&      MOVS     r6,#0
        0x00000606:    c5c0        ..      STM      r5!,{r6,r7}
        0x00000608:    c5c0        ..      STM      r5!,{r6,r7}
        0x0000060a:    c5c0        ..      STM      r5!,{r6,r7}
        0x0000060c:    c5c0        ..      STM      r5!,{r6,r7}
        0x0000060e:    c5c0        ..      STM      r5!,{r6,r7}
        0x00000610:    c5c0        ..      STM      r5!,{r6,r7}
        0x00000612:    c5c0        ..      STM      r5!,{r6,r7}
        0x00000614:    c5c0        ..      STM      r5!,{r6,r7}
        0x00000616:    3d40        @=      SUBS     r5,r5,#0x40
        0x00000618:    0049        I.      LSLS     r1,r1,#1
        0x0000061a:    468d        .F      MOV      sp,r1
        0x0000061c:    4770        pG      BX       lr
    .text
    exit
        0x0000061e:    b510        ..      PUSH     {r4,lr}
        0x00000620:    4604        .F      MOV      r4,r0
        0x00000622:    46c0        .F      MOV      r8,r8
        0x00000624:    46c0        .F      MOV      r8,r8
        0x00000626:    4620         F      MOV      r0,r4
        0x00000628:    f7fffd9d    ....    BL       __rt_exit ; 0x166
        0x0000062c:    bd10        ..      POP      {r4,pc}
        0x0000062e:    0000        ..      MOVS     r0,r0
    .text
    __user_libspace
    __user_perproc_libspace
    __user_perthread_libspace
        0x00000630:    4800        .H      LDR      r0,[pc,#0] ; [0x634] = 0x20000094
        0x00000632:    4770        pG      BX       lr
    $d
        0x00000634:    20000094    ...     DCD    536871060
    $t
    .text
    _sys_exit
        0x00000638:    4901        .I      LDR      r1,[pc,#4] ; [0x640] = 0x20026
        0x0000063a:    2018        .       MOVS     r0,#0x18
        0x0000063c:    beab        ..      BKPT     #0xab
        0x0000063e:    e7fe        ..      B        0x63e ; _sys_exit + 6
    $d
        0x00000640:    00020026    &...    DCD    131110
    $t
    .text
    __I$use$semihosting
    __use_no_semihosting_swi
        0x00000644:    4770        pG      BX       lr
    .text
    __semihosting_library_function
        0x00000646:    0000        ..      MOVS     r0,r0
    i.CLK_EnableModuleClock
    CLK_EnableModuleClock
        0x00000648:    0f81        ..      LSRS     r1,r0,#30
        0x0000064a:    008a        ..      LSLS     r2,r1,#2
        0x0000064c:    4904        .I      LDR      r1,[pc,#16] ; [0x660] = 0x50000200
        0x0000064e:    1851        Q.      ADDS     r1,r2,r1
        0x00000650:    684a        Jh      LDR      r2,[r1,#4]
        0x00000652:    06c3        ..      LSLS     r3,r0,#27
        0x00000654:    0edb        ..      LSRS     r3,r3,#27
        0x00000656:    2001        .       MOVS     r0,#1
        0x00000658:    4098        .@      LSLS     r0,r0,r3
        0x0000065a:    4302        .C      ORRS     r2,r2,r0
        0x0000065c:    604a        J`      STR      r2,[r1,#4]
        0x0000065e:    4770        pG      BX       lr
    $d
        0x00000660:    50000200    ...P    DCD    1342177792
    $t
    i.CLK_EnableXtalRC
    CLK_EnableXtalRC
        0x00000664:    4902        .I      LDR      r1,[pc,#8] ; [0x670] = 0x50000200
        0x00000666:    680a        .h      LDR      r2,[r1,#0]
        0x00000668:    4302        .C      ORRS     r2,r2,r0
        0x0000066a:    600a        .`      STR      r2,[r1,#0]
        0x0000066c:    4770        pG      BX       lr
    $d
        0x0000066e:    0000        ..      DCW    0
        0x00000670:    50000200    ...P    DCD    1342177792
    $t
    i.CLK_GetPLLClockFreq
    CLK_GetPLLClockFreq
        0x00000674:    b508        ..      PUSH     {r3,lr}
        0x00000676:    a011        ..      ADR      r0,{pc}+0x46 ; 0x6bc
        0x00000678:    6800        .h      LDR      r0,[r0,#0]
        0x0000067a:    9000        ..      STR      r0,[sp,#0]
        0x0000067c:    4810        .H      LDR      r0,[pc,#64] ; [0x6c0] = 0x50000200
        0x0000067e:    6a01        .j      LDR      r1,[r0,#0x20]
        0x00000680:    1300        ..      ASRS     r0,r0,#12
        0x00000682:    4201        .B      TST      r1,r0
        0x00000684:    d001        ..      BEQ      0x68a ; CLK_GetPLLClockFreq + 22
        0x00000686:    2000        .       MOVS     r0,#0
        0x00000688:    bd08        ..      POP      {r3,pc}
        0x0000068a:    0308        ..      LSLS     r0,r1,#12
        0x0000068c:    d501        ..      BPL      0x692 ; CLK_GetPLLClockFreq + 30
        0x0000068e:    480d        .H      LDR      r0,[pc,#52] ; [0x6c4] = 0x1518000
        0x00000690:    e000        ..      B        0x694 ; CLK_GetPLLClockFreq + 32
        0x00000692:    480d        .H      LDR      r0,[pc,#52] ; [0x6c8] = 0xb71b00
        0x00000694:    038a        ..      LSLS     r2,r1,#14
        0x00000696:    d4f7        ..      BMI      0x688 ; CLK_GetPLLClockFreq + 20
        0x00000698:    040a        ..      LSLS     r2,r1,#16
        0x0000069a:    0f92        ..      LSRS     r2,r2,#30
        0x0000069c:    466b        kF      MOV      r3,sp
        0x0000069e:    5c9b        .\      LDRB     r3,[r3,r2]
        0x000006a0:    05ca        ..      LSLS     r2,r1,#23
        0x000006a2:    0489        ..      LSLS     r1,r1,#18
        0x000006a4:    0dd2        ..      LSRS     r2,r2,#23
        0x000006a6:    0ec9        ..      LSRS     r1,r1,#27
        0x000006a8:    1c89        ..      ADDS     r1,r1,#2
        0x000006aa:    0880        ..      LSRS     r0,r0,#2
        0x000006ac:    1c92        ..      ADDS     r2,r2,#2
        0x000006ae:    4359        YC      MULS     r1,r3,r1
        0x000006b0:    4350        PC      MULS     r0,r2,r0
        0x000006b2:    f7fffe60    ..`.    BL       __aeabi_uidiv ; 0x376
        0x000006b6:    0080        ..      LSLS     r0,r0,#2
        0x000006b8:    bd08        ..      POP      {r3,pc}
    $d
        0x000006ba:    0000        ..      DCW    0
        0x000006bc:    04020201    ....    DCD    67240449
        0x000006c0:    50000200    ...P    DCD    1342177792
        0x000006c4:    01518000    ..Q.    DCD    22118400
        0x000006c8:    00b71b00    ....    DCD    12000000
    $t
    i.CLK_SetHCLK
    CLK_SetHCLK
        0x000006cc:    b5f3        ..      PUSH     {r0,r1,r4-r7,lr}
        0x000006ce:    4c11        .L      LDR      r4,[pc,#68] ; [0x714] = 0x50000200
        0x000006d0:    b081        ..      SUB      sp,sp,#4
        0x000006d2:    68e5        .h      LDR      r5,[r4,#0xc]
        0x000006d4:    460f        .F      MOV      r7,r1
        0x000006d6:    2010        .       MOVS     r0,#0x10
        0x000006d8:    4005        .@      ANDS     r5,r5,r0
        0x000006da:    6820         h      LDR      r0,[r4,#0]
        0x000006dc:    2604        .&      MOVS     r6,#4
        0x000006de:    4330        0C      ORRS     r0,r0,r6
        0x000006e0:    6020         `      STR      r0,[r4,#0]
        0x000006e2:    2010        .       MOVS     r0,#0x10
        0x000006e4:    f000f852    ..R.    BL       CLK_WaitClockReady ; 0x78c
        0x000006e8:    6920         i      LDR      r0,[r4,#0x10]
        0x000006ea:    2107        .!      MOVS     r1,#7
        0x000006ec:    4308        .C      ORRS     r0,r0,r1
        0x000006ee:    6120         a      STR      r0,[r4,#0x10]
        0x000006f0:    69a0        .i      LDR      r0,[r4,#0x18]
        0x000006f2:    0900        ..      LSRS     r0,r0,#4
        0x000006f4:    0100        ..      LSLS     r0,r0,#4
        0x000006f6:    4338        8C      ORRS     r0,r0,r7
        0x000006f8:    61a0        .a      STR      r0,[r4,#0x18]
        0x000006fa:    6920         i      LDR      r0,[r4,#0x10]
        0x000006fc:    4388        .C      BICS     r0,r0,r1
        0x000006fe:    9901        ..      LDR      r1,[sp,#4]
        0x00000700:    4308        .C      ORRS     r0,r0,r1
        0x00000702:    6120         a      STR      r0,[r4,#0x10]
        0x00000704:    f000f914    ....    BL       SystemCoreClockUpdate ; 0x930
        0x00000708:    2d00        .-      CMP      r5,#0
        0x0000070a:    d102        ..      BNE      0x712 ; CLK_SetHCLK + 70
        0x0000070c:    6820         h      LDR      r0,[r4,#0]
        0x0000070e:    43b0        .C      BICS     r0,r0,r6
        0x00000710:    6020         `      STR      r0,[r4,#0]
        0x00000712:    bdfe        ..      POP      {r1-r7,pc}
    $d
        0x00000714:    50000200    ...P    DCD    1342177792
    $t
    i.CLK_SetModuleClock
    CLK_SetModuleClock
        0x00000718:    b570        p.      PUSH     {r4-r6,lr}
        0x0000071a:    0e43        C.      LSRS     r3,r0,#25
        0x0000071c:    075b        [.      LSLS     r3,r3,#29
        0x0000071e:    d00d        ..      BEQ      0x73c ; CLK_SetModuleClock + 36
        0x00000720:    0083        ..      LSLS     r3,r0,#2
        0x00000722:    0f9b        ..      LSRS     r3,r3,#30
        0x00000724:    4c0f        .L      LDR      r4,[pc,#60] ; [0x764] = 0x50000210
        0x00000726:    009b        ..      LSLS     r3,r3,#2
        0x00000728:    191b        ..      ADDS     r3,r3,r4
        0x0000072a:    681c        .h      LDR      r4,[r3,#0]
        0x0000072c:    0105        ..      LSLS     r5,r0,#4
        0x0000072e:    0f6d        m.      LSRS     r5,r5,#29
        0x00000730:    01c6        ..      LSLS     r6,r0,#7
        0x00000732:    0ef6        ..      LSRS     r6,r6,#27
        0x00000734:    40b5        .@      LSLS     r5,r5,r6
        0x00000736:    43ac        .C      BICS     r4,r4,r5
        0x00000738:    430c        .C      ORRS     r4,r4,r1
        0x0000073a:    601c        .`      STR      r4,[r3,#0]
        0x0000073c:    0a83        ..      LSRS     r3,r0,#10
        0x0000073e:    0619        ..      LSLS     r1,r3,#24
        0x00000740:    0e09        ..      LSRS     r1,r1,#24
        0x00000742:    d00e        ..      BEQ      0x762 ; CLK_SetModuleClock + 74
        0x00000744:    0301        ..      LSLS     r1,r0,#12
        0x00000746:    4c07        .L      LDR      r4,[pc,#28] ; [0x764] = 0x50000210
        0x00000748:    0f89        ..      LSRS     r1,r1,#30
        0x0000074a:    0089        ..      LSLS     r1,r1,#2
        0x0000074c:    3408        .4      ADDS     r4,r4,#8
        0x0000074e:    1909        ..      ADDS     r1,r1,r4
        0x00000750:    680c        .h      LDR      r4,[r1,#0]
        0x00000752:    b2db        ..      UXTB     r3,r3
        0x00000754:    0580        ..      LSLS     r0,r0,#22
        0x00000756:    43db        .C      MVNS     r3,r3
        0x00000758:    0ec0        ..      LSRS     r0,r0,#27
        0x0000075a:    4083        .@      LSLS     r3,r3,r0
        0x0000075c:    4023        #@      ANDS     r3,r3,r4
        0x0000075e:    4313        .C      ORRS     r3,r3,r2
        0x00000760:    600b        .`      STR      r3,[r1,#0]
        0x00000762:    bd70        p.      POP      {r4-r6,pc}
    $d
        0x00000764:    50000210    ...P    DCD    1342177808
    $t
    i.CLK_SysTickDelay
    CLK_SysTickDelay
        0x00000768:    4906        .I      LDR      r1,[pc,#24] ; [0x784] = 0x20000004
        0x0000076a:    6809        .h      LDR      r1,[r1,#0]
        0x0000076c:    4348        HC      MULS     r0,r1,r0
        0x0000076e:    4906        .I      LDR      r1,[pc,#24] ; [0x788] = 0xe000e000
        0x00000770:    6148        Ha      STR      r0,[r1,#0x14]
        0x00000772:    2200        ."      MOVS     r2,#0
        0x00000774:    618a        .a      STR      r2,[r1,#0x18]
        0x00000776:    2005        .       MOVS     r0,#5
        0x00000778:    6108        .a      STR      r0,[r1,#0x10]
        0x0000077a:    6908        .i      LDR      r0,[r1,#0x10]
        0x0000077c:    03c0        ..      LSLS     r0,r0,#15
        0x0000077e:    d5fc        ..      BPL      0x77a ; CLK_SysTickDelay + 18
        0x00000780:    610a        .a      STR      r2,[r1,#0x10]
        0x00000782:    4770        pG      BX       lr
    $d
        0x00000784:    20000004    ...     DCD    536870916
        0x00000788:    e000e000    ....    DCD    3758153728
    $t
    i.CLK_WaitClockReady
    CLK_WaitClockReady
        0x0000078c:    b510        ..      PUSH     {r4,lr}
        0x0000078e:    4604        .F      MOV      r4,r0
        0x00000790:    4907        .I      LDR      r1,[pc,#28] ; [0x7b0] = 0x124f80
        0x00000792:    4b08        .K      LDR      r3,[pc,#32] ; [0x7b4] = 0x50000200
        0x00000794:    e005        ..      B        0x7a2 ; CLK_WaitClockReady + 22
        0x00000796:    460a        .F      MOV      r2,r1
        0x00000798:    1e49        I.      SUBS     r1,r1,#1
        0x0000079a:    2a00        .*      CMP      r2,#0
        0x0000079c:    dc01        ..      BGT      0x7a2 ; CLK_WaitClockReady + 22
        0x0000079e:    2000        .       MOVS     r0,#0
        0x000007a0:    bd10        ..      POP      {r4,pc}
        0x000007a2:    68da        .h      LDR      r2,[r3,#0xc]
        0x000007a4:    4620         F      MOV      r0,r4
        0x000007a6:    4390        .C      BICS     r0,r0,r2
        0x000007a8:    d1f5        ..      BNE      0x796 ; CLK_WaitClockReady + 10
        0x000007aa:    2001        .       MOVS     r0,#1
        0x000007ac:    bd10        ..      POP      {r4,pc}
    $d
        0x000007ae:    0000        ..      DCW    0
        0x000007b0:    00124f80    .O..    DCD    1200000
        0x000007b4:    50000200    ...P    DCD    1342177792
    $t
    i.Delay_ms
    Delay_ms
        0x000007b8:    2300        .#      MOVS     r3,#0
        0x000007ba:    e00b        ..      B        0x7d4 ; Delay_ms + 28
        0x000007bc:    2116        .!      MOVS     r1,#0x16
        0x000007be:    2280        ."      MOVS     r2,#0x80
        0x000007c0:    1e52        R.      SUBS     r2,r2,#1
        0x000007c2:    0612        ..      LSLS     r2,r2,#24
        0x000007c4:    0e12        ..      LSRS     r2,r2,#24
        0x000007c6:    d1fb        ..      BNE      0x7c0 ; Delay_ms + 8
        0x000007c8:    1e49        I.      SUBS     r1,r1,#1
        0x000007ca:    0609        ..      LSLS     r1,r1,#24
        0x000007cc:    0e09        ..      LSRS     r1,r1,#24
        0x000007ce:    d1f7        ..      BNE      0x7c0 ; Delay_ms + 8
        0x000007d0:    1c5b        [.      ADDS     r3,r3,#1
        0x000007d2:    b2db        ..      UXTB     r3,r3
        0x000007d4:    4283        .B      CMP      r3,r0
        0x000007d6:    d3f1        ..      BCC      0x7bc ; Delay_ms + 4
        0x000007d8:    4770        pG      BX       lr
        0x000007da:    0000        ..      MOVS     r0,r0
    i.H_dat
    H_dat
        0x000007dc:    b500        ..      PUSH     {lr}
        0x000007de:    4906        .I      LDR      r1,[pc,#24] ; [0x7f8] = 0x50004280
        0x000007e0:    6088        .`      STR      r0,[r1,#8]
        0x000007e2:    4a05        .J      LDR      r2,[pc,#20] ; [0x7f8] = 0x50004280
        0x000007e4:    2001        .       MOVS     r0,#1
        0x000007e6:    3a40        @:      SUBS     r2,r2,#0x40
        0x000007e8:    6290        .b      STR      r0,[r2,#0x28]
        0x000007ea:    2005        .       MOVS     r0,#5
        0x000007ec:    f000f9c4    ....    BL       delay ; 0xb78
        0x000007f0:    2000        .       MOVS     r0,#0
        0x000007f2:    6290        .b      STR      r0,[r2,#0x28]
        0x000007f4:    bd00        ..      POP      {pc}
    $d
        0x000007f6:    0000        ..      DCW    0
        0x000007f8:    50004280    .B.P    DCD    1342194304
    $t
    i.H_go
    H_go
        0x000007fc:    b5f8        ..      PUSH     {r3-r7,lr}
        0x000007fe:    4c10        .L      LDR      r4,[pc,#64] ; [0x840] = 0x50004080
        0x00000800:    4605        .F      MOV      r5,r0
        0x00000802:    68a0        .h      LDR      r0,[r4,#8]
        0x00000804:    21c0        .!      MOVS     r1,#0xc0
        0x00000806:    4008        .@      ANDS     r0,r0,r1
        0x00000808:    60a0        .`      STR      r0,[r4,#8]
        0x0000080a:    68a0        .h      LDR      r0,[r4,#8]
        0x0000080c:    2101        .!      MOVS     r1,#1
        0x0000080e:    40a9        .@      LSLS     r1,r1,r5
        0x00000810:    4308        .C      ORRS     r0,r0,r1
        0x00000812:    60a0        .`      STR      r0,[r4,#8]
        0x00000814:    4f0b        .O      LDR      r7,[pc,#44] ; [0x844] = 0x20000018
        0x00000816:    463e        >F      MOV      r6,r7
        0x00000818:    3e0c        .>      SUBS     r6,r6,#0xc
        0x0000081a:    5d78        x]      LDRB     r0,[r7,r5]
        0x0000081c:    7831        1x      LDRB     r1,[r6,#0]
        0x0000081e:    f7fffdaa    ....    BL       __aeabi_uidiv ; 0x376
        0x00000822:    f7ffffc9    ....    BL       Delay_ms ; 0x7b8
        0x00000826:    68a0        .h      LDR      r0,[r4,#8]
        0x00000828:    21c0        .!      MOVS     r1,#0xc0
        0x0000082a:    4008        .@      ANDS     r0,r0,r1
        0x0000082c:    60a0        .`      STR      r0,[r4,#8]
        0x0000082e:    5d78        x]      LDRB     r0,[r7,r5]
        0x00000830:    2837        7(      CMP      r0,#0x37
        0x00000832:    d904        ..      BLS      0x83e ; H_go + 66
        0x00000834:    7831        1x      LDRB     r1,[r6,#0]
        0x00000836:    f7fffd9e    ....    BL       __aeabi_uidiv ; 0x376
        0x0000083a:    f7ffffbd    ....    BL       Delay_ms ; 0x7b8
        0x0000083e:    bdf8        ..      POP      {r3-r7,pc}
    $d
        0x00000840:    50004080    .@.P    DCD    1342193792
        0x00000844:    20000018    ...     DCD    536870936
    $t
    i.H_lock
    H_lock
        0x00000848:    b500        ..      PUSH     {lr}
        0x0000084a:    4a04        .J      LDR      r2,[pc,#16] ; [0x85c] = 0x50004240
        0x0000084c:    2000        .       MOVS     r0,#0
        0x0000084e:    62d0        .b      STR      r0,[r2,#0x2c]
        0x00000850:    2005        .       MOVS     r0,#5
        0x00000852:    f000f991    ....    BL       delay ; 0xb78
        0x00000856:    2001        .       MOVS     r0,#1
        0x00000858:    62d0        .b      STR      r0,[r2,#0x2c]
        0x0000085a:    bd00        ..      POP      {pc}
    $d
        0x0000085c:    50004240    @B.P    DCD    1342194240
    $t
    i.Hard_Fault_Handler
    Hard_Fault_Handler
    __tagsym$$used
        0x00000860:    4604        .F      MOV      r4,r0
        0x00000862:    a003        ..      ADR      r0,{pc}+0xe ; 0x870
        0x00000864:    f7fffcc6    ....    BL       __2printf ; 0x1f4
        0x00000868:    4620         F      MOV      r0,r4
        0x0000086a:    f000fa4d    ..M.    BL       stackDump ; 0xd08
        0x0000086e:    e7fe        ..      B        0x86e ; Hard_Fault_Handler + 14
    $d
        0x00000870:    48206e49    In H    DCD    1210084937
        0x00000874:    20647261    ard     DCD    543453793
        0x00000878:    6c756146    Faul    DCD    1819631942
        0x0000087c:    61482074    t Ha    DCD    1632116852
        0x00000880:    656c646e    ndle    DCD    1701602414
        0x00000884:    00000a72    r...    DCD    2674
    $t
    i.SYS_Init
    SYS_Init
        0x00000888:    b570        p.      PUSH     {r4-r6,lr}
        0x0000088a:    2159        Y!      MOVS     r1,#0x59
        0x0000088c:    2216        ."      MOVS     r2,#0x16
        0x0000088e:    4c16        .L      LDR      r4,[pc,#88] ; [0x8e8] = 0x50000100
        0x00000890:    2088        .       MOVS     r0,#0x88
        0x00000892:    e002        ..      B        0x89a ; SYS_Init + 18
        0x00000894:    6021        !`      STR      r1,[r4,#0]
        0x00000896:    6022        "`      STR      r2,[r4,#0]
        0x00000898:    6020         `      STR      r0,[r4,#0]
        0x0000089a:    6823        #h      LDR      r3,[r4,#0]
        0x0000089c:    2b01        .+      CMP      r3,#1
        0x0000089e:    d1f9        ..      BNE      0x894 ; SYS_Init + 12
        0x000008a0:    2004        .       MOVS     r0,#4
        0x000008a2:    f7fffedf    ....    BL       CLK_EnableXtalRC ; 0x664
        0x000008a6:    2010        .       MOVS     r0,#0x10
        0x000008a8:    f7ffff70    ..p.    BL       CLK_WaitClockReady ; 0x78c
        0x000008ac:    2100        .!      MOVS     r1,#0
        0x000008ae:    2007        .       MOVS     r0,#7
        0x000008b0:    f7ffff0c    ....    BL       CLK_SetHCLK ; 0x6cc
        0x000008b4:    4d0d        .M      LDR      r5,[pc,#52] ; [0x8ec] = 0x57803d10
        0x000008b6:    4628        (F      MOV      r0,r5
        0x000008b8:    f7fffec6    ....    BL       CLK_EnableModuleClock ; 0x648
        0x000008bc:    2103        .!      MOVS     r1,#3
        0x000008be:    2200        ."      MOVS     r2,#0
        0x000008c0:    0609        ..      LSLS     r1,r1,#24
        0x000008c2:    4628        (F      MOV      r0,r5
        0x000008c4:    f7ffff28    ..(.    BL       CLK_SetModuleClock ; 0x718
        0x000008c8:    f000f832    ..2.    BL       SystemCoreClockUpdate ; 0x930
        0x000008cc:    2005        .       MOVS     r0,#5
        0x000008ce:    0700        ..      LSLS     r0,r0,#28
        0x000008d0:    6bc1        .k      LDR      r1,[r0,#0x3c]
        0x000008d2:    4a07        .J      LDR      r2,[pc,#28] ; [0x8f0] = 0xfffffcfc
        0x000008d4:    4011        .@      ANDS     r1,r1,r2
        0x000008d6:    63c1        .c      STR      r1,[r0,#0x3c]
        0x000008d8:    6bc1        .k      LDR      r1,[r0,#0x3c]
        0x000008da:    2203        ."      MOVS     r2,#3
        0x000008dc:    4311        .C      ORRS     r1,r1,r2
        0x000008de:    63c1        .c      STR      r1,[r0,#0x3c]
        0x000008e0:    2000        .       MOVS     r0,#0
        0x000008e2:    6020         `      STR      r0,[r4,#0]
        0x000008e4:    bd70        p.      POP      {r4-r6,pc}
    $d
        0x000008e6:    0000        ..      DCW    0
        0x000008e8:    50000100    ...P    DCD    1342177536
        0x000008ec:    57803d10    .=.W    DCD    1468022032
        0x000008f0:    fffffcfc    ....    DCD    4294966524
    $t
    i.SYS_ResetModule
    SYS_ResetModule
        0x000008f4:    2105        .!      MOVS     r1,#5
        0x000008f6:    0e02        ..      LSRS     r2,r0,#24
        0x000008f8:    0709        ..      LSLS     r1,r1,#28
        0x000008fa:    1851        Q.      ADDS     r1,r2,r1
        0x000008fc:    688b        .h      LDR      r3,[r1,#8]
        0x000008fe:    2201        ."      MOVS     r2,#1
        0x00000900:    4082        .@      LSLS     r2,r2,r0
        0x00000902:    4313        .C      ORRS     r3,r3,r2
        0x00000904:    608b        .`      STR      r3,[r1,#8]
        0x00000906:    6888        .h      LDR      r0,[r1,#8]
        0x00000908:    4390        .C      BICS     r0,r0,r2
        0x0000090a:    6088        .`      STR      r0,[r1,#8]
        0x0000090c:    4770        pG      BX       lr
        0x0000090e:    0000        ..      MOVS     r0,r0
    i.SendChar_ToUART
    SendChar_ToUART
        0x00000910:    4906        .I      LDR      r1,[pc,#24] ; [0x92c] = 0x40050000
        0x00000912:    698a        .i      LDR      r2,[r1,#0x18]
        0x00000914:    0212        ..      LSLS     r2,r2,#8
        0x00000916:    d4fc        ..      BMI      0x912 ; SendChar_ToUART + 2
        0x00000918:    6008        .`      STR      r0,[r1,#0]
        0x0000091a:    280a        .(      CMP      r0,#0xa
        0x0000091c:    d104        ..      BNE      0x928 ; SendChar_ToUART + 24
        0x0000091e:    6988        .i      LDR      r0,[r1,#0x18]
        0x00000920:    0200        ..      LSLS     r0,r0,#8
        0x00000922:    d4fc        ..      BMI      0x91e ; SendChar_ToUART + 14
        0x00000924:    200d        .       MOVS     r0,#0xd
        0x00000926:    6008        .`      STR      r0,[r1,#0]
        0x00000928:    4770        pG      BX       lr
    $d
        0x0000092a:    0000        ..      DCW    0
        0x0000092c:    40050000    ...@    DCD    1074069504
    $t
    i.SystemCoreClockUpdate
    SystemCoreClockUpdate
        0x00000930:    b5f8        ..      PUSH     {r3-r7,lr}
        0x00000932:    4d1c        .M      LDR      r5,[pc,#112] ; [0x9a4] = 0x50000200
        0x00000934:    6928        (i      LDR      r0,[r5,#0x10]
        0x00000936:    0744        D.      LSLS     r4,r0,#29
        0x00000938:    a01b        ..      ADR      r0,{pc}+0x70 ; 0x9a8
        0x0000093a:    6800        .h      LDR      r0,[r0,#0]
        0x0000093c:    9000        ..      STR      r0,[sp,#0]
        0x0000093e:    6a29        )j      LDR      r1,[r5,#0x20]
        0x00000940:    0f64        d.      LSRS     r4,r4,#29
        0x00000942:    1328        (.      ASRS     r0,r5,#12
        0x00000944:    4201        .B      TST      r1,r0
        0x00000946:    d001        ..      BEQ      0x94c ; SystemCoreClockUpdate + 28
        0x00000948:    2000        .       MOVS     r0,#0
        0x0000094a:    e016        ..      B        0x97a ; SystemCoreClockUpdate + 74
        0x0000094c:    0308        ..      LSLS     r0,r1,#12
        0x0000094e:    d501        ..      BPL      0x954 ; SystemCoreClockUpdate + 36
        0x00000950:    4816        .H      LDR      r0,[pc,#88] ; [0x9ac] = 0x1518000
        0x00000952:    e000        ..      B        0x956 ; SystemCoreClockUpdate + 38
        0x00000954:    4816        .H      LDR      r0,[pc,#88] ; [0x9b0] = 0xb71b00
        0x00000956:    038a        ..      LSLS     r2,r1,#14
        0x00000958:    d40f        ..      BMI      0x97a ; SystemCoreClockUpdate + 74
        0x0000095a:    040a        ..      LSLS     r2,r1,#16
        0x0000095c:    0f92        ..      LSRS     r2,r2,#30
        0x0000095e:    466b        kF      MOV      r3,sp
        0x00000960:    5c9b        .\      LDRB     r3,[r3,r2]
        0x00000962:    05ca        ..      LSLS     r2,r1,#23
        0x00000964:    0489        ..      LSLS     r1,r1,#18
        0x00000966:    0dd2        ..      LSRS     r2,r2,#23
        0x00000968:    0ec9        ..      LSRS     r1,r1,#27
        0x0000096a:    1c89        ..      ADDS     r1,r1,#2
        0x0000096c:    0880        ..      LSRS     r0,r0,#2
        0x0000096e:    1c92        ..      ADDS     r2,r2,#2
        0x00000970:    4359        YC      MULS     r1,r3,r1
        0x00000972:    4350        PC      MULS     r0,r2,r0
        0x00000974:    f7fffcff    ....    BL       __aeabi_uidiv ; 0x376
        0x00000978:    0080        ..      LSLS     r0,r0,#2
        0x0000097a:    4e0e        .N      LDR      r6,[pc,#56] ; [0x9b4] = 0x20000000
        0x0000097c:    2c02        .,      CMP      r4,#2
        0x0000097e:    60b0        .`      STR      r0,[r6,#8]
        0x00000980:    d002        ..      BEQ      0x988 ; SystemCoreClockUpdate + 88
        0x00000982:    490d        .I      LDR      r1,[pc,#52] ; [0x9b8] = 0xdec
        0x00000984:    00a0        ..      LSLS     r0,r4,#2
        0x00000986:    5808        .X      LDR      r0,[r1,r0]
        0x00000988:    69a9        .i      LDR      r1,[r5,#0x18]
        0x0000098a:    0709        ..      LSLS     r1,r1,#28
        0x0000098c:    0f09        ..      LSRS     r1,r1,#28
        0x0000098e:    1c49        I.      ADDS     r1,r1,#1
        0x00000990:    f7fffcf1    ....    BL       __aeabi_uidiv ; 0x376
        0x00000994:    4909        .I      LDR      r1,[pc,#36] ; [0x9bc] = 0xf4240
        0x00000996:    6030        0`      STR      r0,[r6,#0]
        0x00000998:    104a        J.      ASRS     r2,r1,#1
        0x0000099a:    1880        ..      ADDS     r0,r0,r2
        0x0000099c:    f7fffceb    ....    BL       __aeabi_uidiv ; 0x376
        0x000009a0:    6070        p`      STR      r0,[r6,#4]
        0x000009a2:    bdf8        ..      POP      {r3-r7,pc}
    $d
        0x000009a4:    50000200    ...P    DCD    1342177792
        0x000009a8:    04020201    ....    DCD    67240449
        0x000009ac:    01518000    ..Q.    DCD    22118400
        0x000009b0:    00b71b00    ....    DCD    12000000
        0x000009b4:    20000000    ...     DCD    536870912
        0x000009b8:    00000dec    ....    DCD    3564
        0x000009bc:    000f4240    @B..    DCD    1000000
    $t
    i.SystemInit
    SystemInit
        0x000009c0:    4770        pG      BX       lr
        0x000009c2:    0000        ..      MOVS     r0,r0
    i.UART0_IRQHandler
    UART0_IRQHandler
        0x000009c4:    b570        p.      PUSH     {r4-r6,lr}
        0x000009c6:    4a21        !J      LDR      r2,[pc,#132] ; [0xa4c] = 0x40050000
        0x000009c8:    69d0        .i      LDR      r0,[r2,#0x1c]
        0x000009ca:    07c0        ..      LSLS     r0,r0,#31
        0x000009cc:    d030        0.      BEQ      0xa30 ; UART0_IRQHandler + 108
        0x000009ce:    6810        .h      LDR      r0,[r2,#0]
        0x000009d0:    4e20         N      LDR      r6,[pc,#128] ; [0xa54] = 0x2000000c
        0x000009d2:    b2c1        ..      UXTB     r1,r0
        0x000009d4:    4d1e        .M      LDR      r5,[pc,#120] ; [0xa50] = 0x20000024
        0x000009d6:    7930        0y      LDRB     r0,[r6,#4]
        0x000009d8:    2400        .$      MOVS     r4,#0
        0x000009da:    5429        )T      STRB     r1,[r5,r0]
        0x000009dc:    297f        .)      CMP      r1,#0x7f
        0x000009de:    d92b        +.      BLS      0xa38 ; UART0_IRQHandler + 116
        0x000009e0:    2980        .)      CMP      r1,#0x80
        0x000009e2:    d008        ..      BEQ      0x9f6 ; UART0_IRQHandler + 50
        0x000009e4:    7829        )x      LDRB     r1,[r5,#0]
        0x000009e6:    2301        .#      MOVS     r3,#1
        0x000009e8:    2981        .)      CMP      r1,#0x81
        0x000009ea:    d009        ..      BEQ      0xa00 ; UART0_IRQHandler + 60
        0x000009ec:    2982        .)      CMP      r1,#0x82
        0x000009ee:    d00c        ..      BEQ      0xa0a ; UART0_IRQHandler + 70
        0x000009f0:    2983        .)      CMP      r1,#0x83
        0x000009f2:    d010        ..      BEQ      0xa16 ; UART0_IRQHandler + 82
        0x000009f4:    e011        ..      B        0xa1a ; UART0_IRQHandler + 86
        0x000009f6:    2837        7(      CMP      r0,#0x37
        0x000009f8:    d111        ..      BNE      0xa1e ; UART0_IRQHandler + 90
        0x000009fa:    f000f92d    ..-.    BL       once ; 0xc58
        0x000009fe:    e00e        ..      B        0xa1e ; UART0_IRQHandler + 90
        0x00000a00:    2800        .(      CMP      r0,#0
        0x00000a02:    d10a        ..      BNE      0xa1a ; UART0_IRQHandler + 86
        0x00000a04:    70b3        .p      STRB     r3,[r6,#2]
        0x00000a06:    2002        .       MOVS     r0,#2
        0x00000a08:    e008        ..      B        0xa1c ; UART0_IRQHandler + 88
        0x00000a0a:    2800        .(      CMP      r0,#0
        0x00000a0c:    d105        ..      BNE      0xa1a ; UART0_IRQHandler + 86
        0x00000a0e:    70b4        .p      STRB     r4,[r6,#2]
        0x00000a10:    70f4        .p      STRB     r4,[r6,#3]
        0x00000a12:    2003        .       MOVS     r0,#3
        0x00000a14:    e002        ..      B        0xa1c ; UART0_IRQHandler + 88
        0x00000a16:    2800        .(      CMP      r0,#0
        0x00000a18:    d00b        ..      BEQ      0xa32 ; UART0_IRQHandler + 110
        0x00000a1a:    2005        .       MOVS     r0,#5
        0x00000a1c:    6010        .`      STR      r0,[r2,#0]
        0x00000a1e:    7134        4q      STRB     r4,[r6,#4]
        0x00000a20:    480d        .H      LDR      r0,[pc,#52] ; [0xa58] = 0xea61
        0x00000a22:    60b0        .`      STR      r0,[r6,#8]
        0x00000a24:    2000        .       MOVS     r0,#0
        0x00000a26:    542c        ,T      STRB     r4,[r5,r0]
        0x00000a28:    1c40        @.      ADDS     r0,r0,#1
        0x00000a2a:    b280        ..      UXTH     r0,r0
        0x00000a2c:    283c        <(      CMP      r0,#0x3c
        0x00000a2e:    d3fa        ..      BCC      0xa26 ; UART0_IRQHandler + 98
        0x00000a30:    bd70        p.      POP      {r4-r6,pc}
        0x00000a32:    70f3        .p      STRB     r3,[r6,#3]
        0x00000a34:    2004        .       MOVS     r0,#4
        0x00000a36:    e7f1        ..      B        0xa1c ; UART0_IRQHandler + 88
        0x00000a38:    1c40        @.      ADDS     r0,r0,#1
        0x00000a3a:    b2c0        ..      UXTB     r0,r0
        0x00000a3c:    7130        0q      STRB     r0,[r6,#4]
        0x00000a3e:    60b4        .`      STR      r4,[r6,#8]
        0x00000a40:    286f        o(      CMP      r0,#0x6f
        0x00000a42:    d9f5        ..      BLS      0xa30 ; UART0_IRQHandler + 108
        0x00000a44:    4805        .H      LDR      r0,[pc,#20] ; [0xa5c] = 0x4000010
        0x00000a46:    f7ffff55    ..U.    BL       SYS_ResetModule ; 0x8f4
        0x00000a4a:    bd70        p.      POP      {r4-r6,pc}
    $d
        0x00000a4c:    40050000    ...@    DCD    1074069504
        0x00000a50:    20000024    $..     DCD    536870948
        0x00000a54:    2000000c    ...     DCD    536870924
        0x00000a58:    0000ea61    a...    DCD    60001
        0x00000a5c:    04000010    ....    DCD    67108880
    $t
    i.UART0_Init
    UART0_Init
        0x00000a60:    b510        ..      PUSH     {r4,lr}
        0x00000a62:    4808        .H      LDR      r0,[pc,#32] ; [0xa84] = 0x4000010
        0x00000a64:    f7ffff46    ..F.    BL       SYS_ResetModule ; 0x8f4
        0x00000a68:    4c07        .L      LDR      r4,[pc,#28] ; [0xa88] = 0x40050000
        0x00000a6a:    214b        K!      MOVS     r1,#0x4b
        0x00000a6c:    0249        I.      LSLS     r1,r1,#9
        0x00000a6e:    4620         F      MOV      r0,r4
        0x00000a70:    f000f80e    ....    BL       UART_Open ; 0xa90
        0x00000a74:    6861        ah      LDR      r1,[r4,#4]
        0x00000a76:    2201        ."      MOVS     r2,#1
        0x00000a78:    4311        .C      ORRS     r1,r1,r2
        0x00000a7a:    6061        a`      STR      r1,[r4,#4]
        0x00000a7c:    4903        .I      LDR      r1,[pc,#12] ; [0xa8c] = 0xe000e100
        0x00000a7e:    0310        ..      LSLS     r0,r2,#12
        0x00000a80:    6008        .`      STR      r0,[r1,#0]
        0x00000a82:    bd10        ..      POP      {r4,pc}
    $d
        0x00000a84:    04000010    ....    DCD    67108880
        0x00000a88:    40050000    ...@    DCD    1074069504
        0x00000a8c:    e000e100    ....    DCD    3758153984
    $t
    i.UART_Open
    UART_Open
        0x00000a90:    b5f0        ..      PUSH     {r4-r7,lr}
        0x00000a92:    4604        .F      MOV      r4,r0
        0x00000a94:    481c        .H      LDR      r0,[pc,#112] ; [0xb08] = 0xe0c
        0x00000a96:    460d        .F      MOV      r5,r1
        0x00000a98:    c80f        ..      LDM      r0,{r0-r3}
        0x00000a9a:    b085        ..      SUB      sp,sp,#0x14
        0x00000a9c:    466e        nF      MOV      r6,sp
        0x00000a9e:    c60f        ..      STM      r6!,{r0-r3}
        0x00000aa0:    481a        .H      LDR      r0,[pc,#104] ; [0xb0c] = 0x50000200
        0x00000aa2:    6941        Ai      LDR      r1,[r0,#0x14]
        0x00000aa4:    6980        .i      LDR      r0,[r0,#0x18]
        0x00000aa6:    018a        ..      LSLS     r2,r1,#6
        0x00000aa8:    2103        .!      MOVS     r1,#3
        0x00000aaa:    0f96        ..      LSRS     r6,r2,#30
        0x00000aac:    0500        ..      LSLS     r0,r0,#20
        0x00000aae:    0f07        ..      LSRS     r7,r0,#28
        0x00000ab0:    2000        .       MOVS     r0,#0
        0x00000ab2:    6320         c      STR      r0,[r4,#0x30]
        0x00000ab4:    60e1        .`      STR      r1,[r4,#0xc]
        0x00000ab6:    68a0        .h      LDR      r0,[r4,#8]
        0x00000ab8:    4915        .I      LDR      r1,[pc,#84] ; [0xb10] = 0xfff0ff0f
        0x00000aba:    4008        .@      ANDS     r0,r0,r1
        0x00000abc:    60a0        .`      STR      r0,[r4,#8]
        0x00000abe:    2e01        ..      CMP      r6,#1
        0x00000ac0:    d102        ..      BNE      0xac8 ; UART_Open + 56
        0x00000ac2:    f7fffdd7    ....    BL       CLK_GetPLLClockFreq ; 0x674
        0x00000ac6:    9001        ..      STR      r0,[sp,#4]
        0x00000ac8:    2d00        .-      CMP      r5,#0
        0x00000aca:    d01b        ..      BEQ      0xb04 ; UART_Open + 116
        0x00000acc:    00b1        ..      LSLS     r1,r6,#2
        0x00000ace:    4668        hF      MOV      r0,sp
        0x00000ad0:    5840        @X      LDR      r0,[r0,r1]
        0x00000ad2:    1c79        y.      ADDS     r1,r7,#1
        0x00000ad4:    f7fffc4f    ..O.    BL       __aeabi_uidiv ; 0x376
        0x00000ad8:    4606        .F      MOV      r6,r0
        0x00000ada:    0869        i.      LSRS     r1,r5,#1
        0x00000adc:    1840        @.      ADDS     r0,r0,r1
        0x00000ade:    4629        )F      MOV      r1,r5
        0x00000ae0:    f7fffc49    ..I.    BL       __aeabi_uidiv ; 0x376
        0x00000ae4:    490b        .I      LDR      r1,[pc,#44] ; [0xb14] = 0xffff
        0x00000ae6:    1e80        ..      SUBS     r0,r0,#2
        0x00000ae8:    4288        .B      CMP      r0,r1
        0x00000aea:    d907        ..      BLS      0xafc ; UART_Open + 108
        0x00000aec:    00e9        ..      LSLS     r1,r5,#3
        0x00000aee:    1870        p.      ADDS     r0,r6,r1
        0x00000af0:    4629        )F      MOV      r1,r5
        0x00000af2:    f7fffc40    ..@.    BL       __aeabi_uidiv ; 0x376
        0x00000af6:    0900        ..      LSRS     r0,r0,#4
        0x00000af8:    1e80        ..      SUBS     r0,r0,#2
        0x00000afa:    e002        ..      B        0xb02 ; UART_Open + 114
        0x00000afc:    2103        .!      MOVS     r1,#3
        0x00000afe:    0709        ..      LSLS     r1,r1,#28
        0x00000b00:    4308        .C      ORRS     r0,r0,r1
        0x00000b02:    6260        `b      STR      r0,[r4,#0x24]
        0x00000b04:    b005        ..      ADD      sp,sp,#0x14
        0x00000b06:    bdf0        ..      POP      {r4-r7,pc}
    $d
        0x00000b08:    00000e0c    ....    DCD    3596
        0x00000b0c:    50000200    ...P    DCD    1342177792
        0x00000b10:    fff0ff0f    ....    DCD    4293984015
        0x00000b14:    0000ffff    ....    DCD    65535
    $t
    i._is_digit
    _is_digit
        0x00000b18:    3830        08      SUBS     r0,r0,#0x30
        0x00000b1a:    280a        .(      CMP      r0,#0xa
        0x00000b1c:    d201        ..      BCS      0xb22 ; _is_digit + 10
        0x00000b1e:    2001        .       MOVS     r0,#1
        0x00000b20:    4770        pG      BX       lr
        0x00000b22:    2000        .       MOVS     r0,#0
        0x00000b24:    4770        pG      BX       lr
        0x00000b26:    0000        ..      MOVS     r0,r0
    i.back
    back
        0x00000b28:    b510        ..      PUSH     {r4,lr}
        0x00000b2a:    490a        .I      LDR      r1,[pc,#40] ; [0xb54] = 0x2000000c
        0x00000b2c:    7848        Hx      LDRB     r0,[r1,#1]
        0x00000b2e:    2800        .(      CMP      r0,#0
        0x00000b30:    d00d        ..      BEQ      0xb4e ; back + 38
        0x00000b32:    1e40        @.      SUBS     r0,r0,#1
        0x00000b34:    7048        Hp      STRB     r0,[r1,#1]
        0x00000b36:    4c08        .L      LDR      r4,[pc,#32] ; [0xb58] = 0x50004280
        0x00000b38:    2001        .       MOVS     r0,#1
        0x00000b3a:    60e0        .`      STR      r0,[r4,#0xc]
        0x00000b3c:    7848        Hx      LDRB     r0,[r1,#1]
        0x00000b3e:    f000f937    ..7.    BL       x_m ; 0xdb0
        0x00000b42:    4806        .H      LDR      r0,[pc,#24] ; [0xb5c] = 0x1388
        0x00000b44:    f7fffe10    ....    BL       CLK_SysTickDelay ; 0x768
        0x00000b48:    2000        .       MOVS     r0,#0
        0x00000b4a:    60e0        .`      STR      r0,[r4,#0xc]
        0x00000b4c:    bd10        ..      POP      {r4,pc}
        0x00000b4e:    2003        .       MOVS     r0,#3
        0x00000b50:    e7f0        ..      B        0xb34 ; back + 12
    $d
        0x00000b52:    0000        ..      DCW    0
        0x00000b54:    2000000c    ...     DCD    536870924
        0x00000b58:    50004280    .B.P    DCD    1342194304
        0x00000b5c:    00001388    ....    DCD    5000
    $t
    i.clean
    clean
        0x00000b60:    4904        .I      LDR      r1,[pc,#16] ; [0xb74] = 0x20000018
        0x00000b62:    2000        .       MOVS     r0,#0
        0x00000b64:    7148        Hq      STRB     r0,[r1,#5]
        0x00000b66:    7108        .q      STRB     r0,[r1,#4]
        0x00000b68:    70c8        .p      STRB     r0,[r1,#3]
        0x00000b6a:    7088        .p      STRB     r0,[r1,#2]
        0x00000b6c:    7048        Hp      STRB     r0,[r1,#1]
        0x00000b6e:    7008        .p      STRB     r0,[r1,#0]
        0x00000b70:    4770        pG      BX       lr
    $d
        0x00000b72:    0000        ..      DCW    0
        0x00000b74:    20000018    ...     DCD    536870936
    $t
    i.delay
    delay
        0x00000b78:    2100        .!      MOVS     r1,#0
        0x00000b7a:    e000        ..      B        0xb7e ; delay + 6
        0x00000b7c:    1c49        I.      ADDS     r1,r1,#1
        0x00000b7e:    4281        .B      CMP      r1,r0
        0x00000b80:    d3fc        ..      BCC      0xb7c ; delay + 4
        0x00000b82:    4770        pG      BX       lr
    i.ferror
    ferror
        0x00000b84:    2000        .       MOVS     r0,#0
        0x00000b86:    43c0        .C      MVNS     r0,r0
        0x00000b88:    4770        pG      BX       lr
        0x00000b8a:    0000        ..      MOVS     r0,r0
    i.forward
    forward
        0x00000b8c:    b570        p.      PUSH     {r4-r6,lr}
        0x00000b8e:    490a        .I      LDR      r1,[pc,#40] ; [0xbb8] = 0x2000000c
        0x00000b90:    2400        .$      MOVS     r4,#0
        0x00000b92:    7848        Hx      LDRB     r0,[r1,#1]
        0x00000b94:    2803        .(      CMP      r0,#3
        0x00000b96:    d00c        ..      BEQ      0xbb2 ; forward + 38
        0x00000b98:    1c40        @.      ADDS     r0,r0,#1
        0x00000b9a:    7048        Hp      STRB     r0,[r1,#1]
        0x00000b9c:    4d07        .M      LDR      r5,[pc,#28] ; [0xbbc] = 0x50004280
        0x00000b9e:    2001        .       MOVS     r0,#1
        0x00000ba0:    60e8        .`      STR      r0,[r5,#0xc]
        0x00000ba2:    7848        Hx      LDRB     r0,[r1,#1]
        0x00000ba4:    f000f904    ....    BL       x_m ; 0xdb0
        0x00000ba8:    4805        .H      LDR      r0,[pc,#20] ; [0xbc0] = 0x1388
        0x00000baa:    f7fffddd    ....    BL       CLK_SysTickDelay ; 0x768
        0x00000bae:    60ec        .`      STR      r4,[r5,#0xc]
        0x00000bb0:    bd70        p.      POP      {r4-r6,pc}
        0x00000bb2:    704c        Lp      STRB     r4,[r1,#1]
        0x00000bb4:    e7f2        ..      B        0xb9c ; forward + 16
    $d
        0x00000bb6:    0000        ..      DCW    0
        0x00000bb8:    2000000c    ...     DCD    536870924
        0x00000bbc:    50004280    .B.P    DCD    1342194304
        0x00000bc0:    00001388    ....    DCD    5000
    $t
    i.fputc
    fputc
        0x00000bc4:    b500        ..      PUSH     {lr}
        0x00000bc6:    4603        .F      MOV      r3,r0
        0x00000bc8:    f7fffea2    ....    BL       SendChar_ToUART ; 0x910
        0x00000bcc:    4618        .F      MOV      r0,r3
        0x00000bce:    bd00        ..      POP      {pc}
    i.main
    main
        0x00000bd0:    f7fffe5a    ..Z.    BL       SYS_Init ; 0x888
        0x00000bd4:    4a1a        .J      LDR      r2,[pc,#104] ; [0xc40] = 0x50004280
        0x00000bd6:    2400        .$      MOVS     r4,#0
        0x00000bd8:    60d4        .`      STR      r4,[r2,#0xc]
        0x00000bda:    4819        .H      LDR      r0,[pc,#100] ; [0xc40] = 0x50004280
        0x00000bdc:    3840        @8      SUBS     r0,r0,#0x40
        0x00000bde:    6384        .c      STR      r4,[r0,#0x38]
        0x00000be0:    63c4        .c      STR      r4,[r0,#0x3c]
        0x00000be2:    6344        Dc      STR      r4,[r0,#0x34]
        0x00000be4:    6304        .c      STR      r4,[r0,#0x30]
        0x00000be6:    4917        .I      LDR      r1,[pc,#92] ; [0xc44] = 0x50004080
        0x00000be8:    688b        .h      LDR      r3,[r1,#8]
        0x00000bea:    25c0        .%      MOVS     r5,#0xc0
        0x00000bec:    402b        +@      ANDS     r3,r3,r5
        0x00000bee:    608b        .`      STR      r3,[r1,#8]
        0x00000bf0:    6284        .b      STR      r4,[r0,#0x28]
        0x00000bf2:    2101        .!      MOVS     r1,#1
        0x00000bf4:    62c1        .b      STR      r1,[r0,#0x2c]
        0x00000bf6:    6011        .`      STR      r1,[r2,#0]
        0x00000bf8:    f7ffff32    ..2.    BL       UART0_Init ; 0xa60
        0x00000bfc:    4912        .I      LDR      r1,[pc,#72] ; [0xc48] = 0x20000024
        0x00000bfe:    4e13        .N      LDR      r6,[pc,#76] ; [0xc4c] = 0xea60
        0x00000c00:    4d13        .M      LDR      r5,[pc,#76] ; [0xc50] = 0x2000000c
        0x00000c02:    2000        .       MOVS     r0,#0
        0x00000c04:    540c        .T      STRB     r4,[r1,r0]
        0x00000c06:    1c40        @.      ADDS     r0,r0,#1
        0x00000c08:    b2c0        ..      UXTB     r0,r0
        0x00000c0a:    283c        <(      CMP      r0,#0x3c
        0x00000c0c:    d3fa        ..      BCC      0xc04 ; main + 52
        0x00000c0e:    2705        .'      MOVS     r7,#5
        0x00000c10:    68a8        .h      LDR      r0,[r5,#8]
        0x00000c12:    42b0        .B      CMP      r0,r6
        0x00000c14:    d202        ..      BCS      0xc1c ; main + 76
        0x00000c16:    1c40        @.      ADDS     r0,r0,#1
        0x00000c18:    60a8        .`      STR      r0,[r5,#8]
        0x00000c1a:    e006        ..      B        0xc2a ; main + 90
        0x00000c1c:    42b0        .B      CMP      r0,r6
        0x00000c1e:    d104        ..      BNE      0xc2a ; main + 90
        0x00000c20:    1c40        @.      ADDS     r0,r0,#1
        0x00000c22:    60a8        .`      STR      r0,[r5,#8]
        0x00000c24:    480b        .H      LDR      r0,[pc,#44] ; [0xc54] = 0x40050000
        0x00000c26:    712c        ,q      STRB     r4,[r5,#4]
        0x00000c28:    6007        .`      STR      r7,[r0,#0]
        0x00000c2a:    78a8        .x      LDRB     r0,[r5,#2]
        0x00000c2c:    2800        .(      CMP      r0,#0
        0x00000c2e:    d001        ..      BEQ      0xc34 ; main + 100
        0x00000c30:    f7ffffac    ....    BL       forward ; 0xb8c
        0x00000c34:    78e8        .x      LDRB     r0,[r5,#3]
        0x00000c36:    2800        .(      CMP      r0,#0
        0x00000c38:    d0ea        ..      BEQ      0xc10 ; main + 64
        0x00000c3a:    f7ffff75    ..u.    BL       back ; 0xb28
        0x00000c3e:    e7e7        ..      B        0xc10 ; main + 64
    $d
        0x00000c40:    50004280    .B.P    DCD    1342194304
        0x00000c44:    50004080    .@.P    DCD    1342193792
        0x00000c48:    20000024    $..     DCD    536870948
        0x00000c4c:    0000ea60    `...    DCD    60000
        0x00000c50:    2000000c    ...     DCD    536870924
        0x00000c54:    40050000    ...@    DCD    1074069504
    $t
    i.once
    once
        0x00000c58:    b5f8        ..      PUSH     {r3-r7,lr}
        0x00000c5a:    f7ffff81    ....    BL       clean ; 0xb60
        0x00000c5e:    2400        .$      MOVS     r4,#0
        0x00000c60:    4f25        %O      LDR      r7,[pc,#148] ; [0xcf8] = 0x20000024
        0x00000c62:    4d26        &M      LDR      r5,[pc,#152] ; [0xcfc] = 0x20000018
        0x00000c64:    2640        @&      MOVS     r6,#0x40
        0x00000c66:    2107        .!      MOVS     r1,#7
        0x00000c68:    4620         F      MOV      r0,r4
        0x00000c6a:    f7fffb84    ....    BL       __aeabi_uidiv ; 0x376
        0x00000c6e:    5c38        8\      LDRB     r0,[r7,r0]
        0x00000c70:    4632        2F      MOV      r2,r6
        0x00000c72:    40ca        .@      LSRS     r2,r2,r1
        0x00000c74:    4010        .@      ANDS     r0,r0,r2
        0x00000c76:    d004        ..      BEQ      0xc82 ; once + 42
        0x00000c78:    09a0        ..      LSRS     r0,r4,#6
        0x00000c7a:    5c29        )\      LDRB     r1,[r5,r0]
        0x00000c7c:    1c49        I.      ADDS     r1,r1,#1
        0x00000c7e:    5429        )T      STRB     r1,[r5,r0]
        0x00000c80:    2001        .       MOVS     r0,#1
        0x00000c82:    f7fffdab    ....    BL       H_dat ; 0x7dc
        0x00000c86:    1c64        d.      ADDS     r4,r4,#1
        0x00000c88:    20ff        .       MOVS     r0,#0xff
        0x00000c8a:    b2a4        ..      UXTH     r4,r4
        0x00000c8c:    3081        .0      ADDS     r0,r0,#0x81
        0x00000c8e:    4284        .B      CMP      r4,r0
        0x00000c90:    d3e9        ..      BCC      0xc66 ; once + 14
        0x00000c92:    f7fffdd9    ....    BL       H_lock ; 0x848
        0x00000c96:    2400        .$      MOVS     r4,#0
        0x00000c98:    b2e0        ..      UXTB     r0,r4
        0x00000c9a:    f7fffdaf    ....    BL       H_go ; 0x7fc
        0x00000c9e:    1c64        d.      ADDS     r4,r4,#1
        0x00000ca0:    b2a4        ..      UXTH     r4,r4
        0x00000ca2:    2c06        .,      CMP      r4,#6
        0x00000ca4:    d3f8        ..      BCC      0xc98 ; once + 64
        0x00000ca6:    4e16        .N      LDR      r6,[pc,#88] ; [0xd00] = 0x50004080
        0x00000ca8:    68b0        .h      LDR      r0,[r6,#8]
        0x00000caa:    27c0        .'      MOVS     r7,#0xc0
        0x00000cac:    4038        8@      ANDS     r0,r0,r7
        0x00000cae:    60b0        .`      STR      r0,[r6,#8]
        0x00000cb0:    f7ffff6c    ..l.    BL       forward ; 0xb8c
        0x00000cb4:    2400        .$      MOVS     r4,#0
        0x00000cb6:    b2e0        ..      UXTB     r0,r4
        0x00000cb8:    f7fffda0    ....    BL       H_go ; 0x7fc
        0x00000cbc:    1c64        d.      ADDS     r4,r4,#1
        0x00000cbe:    b2a4        ..      UXTH     r4,r4
        0x00000cc0:    2c06        .,      CMP      r4,#6
        0x00000cc2:    d3f8        ..      BCC      0xcb6 ; once + 94
        0x00000cc4:    7828        (x      LDRB     r0,[r5,#0]
        0x00000cc6:    7869        ix      LDRB     r1,[r5,#1]
        0x00000cc8:    78ea        .x      LDRB     r2,[r5,#3]
        0x00000cca:    1840        @.      ADDS     r0,r0,r1
        0x00000ccc:    78a9        .x      LDRB     r1,[r5,#2]
        0x00000cce:    1889        ..      ADDS     r1,r1,r2
        0x00000cd0:    1840        @.      ADDS     r0,r0,r1
        0x00000cd2:    7929        )y      LDRB     r1,[r5,#4]
        0x00000cd4:    1840        @.      ADDS     r0,r0,r1
        0x00000cd6:    7969        iy      LDRB     r1,[r5,#5]
        0x00000cd8:    1840        @.      ADDS     r0,r0,r1
        0x00000cda:    2802        .(      CMP      r0,#2
        0x00000cdc:    d203        ..      BCS      0xce6 ; once + 142
        0x00000cde:    207d        }       MOVS     r0,#0x7d
        0x00000ce0:    00c0        ..      LSLS     r0,r0,#3
        0x00000ce2:    f7ffff49    ..I.    BL       delay ; 0xb78
        0x00000ce6:    68b0        .h      LDR      r0,[r6,#8]
        0x00000ce8:    4038        8@      ANDS     r0,r0,r7
        0x00000cea:    60b0        .`      STR      r0,[r6,#8]
        0x00000cec:    f7ffff4e    ..N.    BL       forward ; 0xb8c
        0x00000cf0:    4904        .I      LDR      r1,[pc,#16] ; [0xd04] = 0x40050000
        0x00000cf2:    2001        .       MOVS     r0,#1
        0x00000cf4:    6008        .`      STR      r0,[r1,#0]
        0x00000cf6:    bdf8        ..      POP      {r3-r7,pc}
    $d
        0x00000cf8:    20000024    $..     DCD    536870948
        0x00000cfc:    20000018    ...     DCD    536870936
        0x00000d00:    50004080    .@.P    DCD    1342193792
        0x00000d04:    40050000    ...@    DCD    1074069504
    $t
    i.stackDump
    stackDump
        0x00000d08:    b510        ..      PUSH     {r4,lr}
        0x00000d0a:    4604        .F      MOV      r4,r0
        0x00000d0c:    6801        .h      LDR      r1,[r0,#0]
        0x00000d0e:    a010        ..      ADR      r0,{pc}+0x42 ; 0xd50
        0x00000d10:    f7fffa70    ..p.    BL       __2printf ; 0x1f4
        0x00000d14:    a011        ..      ADR      r0,{pc}+0x48 ; 0xd5c
        0x00000d16:    6861        ah      LDR      r1,[r4,#4]
        0x00000d18:    f7fffa6c    ..l.    BL       __2printf ; 0x1f4
        0x00000d1c:    a012        ..      ADR      r0,{pc}+0x4c ; 0xd68
        0x00000d1e:    68a1        .h      LDR      r1,[r4,#8]
        0x00000d20:    f7fffa68    ..h.    BL       __2printf ; 0x1f4
        0x00000d24:    a013        ..      ADR      r0,{pc}+0x50 ; 0xd74
        0x00000d26:    68e1        .h      LDR      r1,[r4,#0xc]
        0x00000d28:    f7fffa64    ..d.    BL       __2printf ; 0x1f4
        0x00000d2c:    a014        ..      ADR      r0,{pc}+0x54 ; 0xd80
        0x00000d2e:    6921        !i      LDR      r1,[r4,#0x10]
        0x00000d30:    f7fffa60    ..`.    BL       __2printf ; 0x1f4
        0x00000d34:    a015        ..      ADR      r0,{pc}+0x58 ; 0xd8c
        0x00000d36:    6961        ai      LDR      r1,[r4,#0x14]
        0x00000d38:    f7fffa5c    ..\.    BL       __2printf ; 0x1f4
        0x00000d3c:    a016        ..      ADR      r0,{pc}+0x5c ; 0xd98
        0x00000d3e:    69a1        .i      LDR      r1,[r4,#0x18]
        0x00000d40:    f7fffa58    ..X.    BL       __2printf ; 0x1f4
        0x00000d44:    a017        ..      ADR      r0,{pc}+0x60 ; 0xda4
        0x00000d46:    69e1        .i      LDR      r1,[r4,#0x1c]
        0x00000d48:    f7fffa54    ..T.    BL       __2printf ; 0x1f4
        0x00000d4c:    bd10        ..      POP      {r4,pc}
    $d
        0x00000d4e:    0000        ..      DCW    0
        0x00000d50:    20203072    r0      DCD    538980466
        0x00000d54:    7830203d    = 0x    DCD    2016419901
        0x00000d58:    000a7825    %x..    DCD    686117
        0x00000d5c:    20203172    r1      DCD    538980722
        0x00000d60:    7830203d    = 0x    DCD    2016419901
        0x00000d64:    000a7825    %x..    DCD    686117
        0x00000d68:    20203272    r2      DCD    538980978
        0x00000d6c:    7830203d    = 0x    DCD    2016419901
        0x00000d70:    000a7825    %x..    DCD    686117
        0x00000d74:    20203372    r3      DCD    538981234
        0x00000d78:    7830203d    = 0x    DCD    2016419901
        0x00000d7c:    000a7825    %x..    DCD    686117
        0x00000d80:    20323172    r12     DCD    540160370
        0x00000d84:    7830203d    = 0x    DCD    2016419901
        0x00000d88:    000a7825    %x..    DCD    686117
        0x00000d8c:    2020726c    lr      DCD    538997356
        0x00000d90:    7830203d    = 0x    DCD    2016419901
        0x00000d94:    000a7825    %x..    DCD    686117
        0x00000d98:    20206370    pc      DCD    538993520
        0x00000d9c:    7830203d    = 0x    DCD    2016419901
        0x00000da0:    000a7825    %x..    DCD    686117
        0x00000da4:    20727370    psr     DCD    544371568
        0x00000da8:    7830203d    = 0x    DCD    2016419901
        0x00000dac:    000a7825    %x..    DCD    686117
    $t
    i.x_m
    x_m
        0x00000db0:    2200        ."      MOVS     r2,#0
        0x00000db2:    2301        .#      MOVS     r3,#1
        0x00000db4:    490c        .I      LDR      r1,[pc,#48] ; [0xde8] = 0x50004240
        0x00000db6:    2800        .(      CMP      r0,#0
        0x00000db8:    d00a        ..      BEQ      0xdd0 ; x_m + 32
        0x00000dba:    2801        .(      CMP      r0,#1
        0x00000dbc:    d00b        ..      BEQ      0xdd6 ; x_m + 38
        0x00000dbe:    2802        .(      CMP      r0,#2
        0x00000dc0:    d00e        ..      BEQ      0xde0 ; x_m + 48
        0x00000dc2:    2803        .(      CMP      r0,#3
        0x00000dc4:    d103        ..      BNE      0xdce ; x_m + 30
        0x00000dc6:    638a        .c      STR      r2,[r1,#0x38]
        0x00000dc8:    63cb        .c      STR      r3,[r1,#0x3c]
        0x00000dca:    634a        Jc      STR      r2,[r1,#0x34]
        0x00000dcc:    630b        .c      STR      r3,[r1,#0x30]
        0x00000dce:    4770        pG      BX       lr
        0x00000dd0:    638a        .c      STR      r2,[r1,#0x38]
        0x00000dd2:    63cb        .c      STR      r3,[r1,#0x3c]
        0x00000dd4:    e001        ..      B        0xdda ; x_m + 42
        0x00000dd6:    638b        .c      STR      r3,[r1,#0x38]
        0x00000dd8:    63ca        .c      STR      r2,[r1,#0x3c]
        0x00000dda:    634b        Kc      STR      r3,[r1,#0x34]
        0x00000ddc:    630a        .c      STR      r2,[r1,#0x30]
        0x00000dde:    4770        pG      BX       lr
        0x00000de0:    638b        .c      STR      r3,[r1,#0x38]
        0x00000de2:    63ca        .c      STR      r2,[r1,#0x3c]
        0x00000de4:    e7f1        ..      B        0xdca ; x_m + 26
    $d
        0x00000de6:    0000        ..      DCW    0
        0x00000de8:    50004240    @B.P    DCD    1342194240
    $d.realdata
    .constdata
    gau32ClkSrcTbl
        0x00000dec:    00b71b00    ....    DCD    12000000
        0x00000df0:    00000000    ....    DCD    0
        0x00000df4:    02faf080    ....    DCD    50000000
        0x00000df8:    00002710    .'..    DCD    10000
        0x00000dfc:    00000000    ....    DCD    0
        0x00000e00:    00000000    ....    DCD    0
        0x00000e04:    00000000    ....    DCD    0
        0x00000e08:    01518000    ..Q.    DCD    22118400
    .constdata
        0x00000e0c:    00b71b00    ....    DCD    12000000
        0x00000e10:    00000000    ....    DCD    0
        0x00000e14:    00000000    ....    DCD    0
        0x00000e18:    01518000    ..Q.    DCD    22118400
        0x00000e1c:    00b71b00    ....    DCD    12000000
        0x00000e20:    00000000    ....    DCD    0
        0x00000e24:    00000000    ....    DCD    0
        0x00000e28:    01518000    ..Q.    DCD    22118400
        0x00000e2c:    00b71b00    ....    DCD    12000000
        0x00000e30:    00000000    ....    DCD    0
        0x00000e34:    00000000    ....    DCD    0
        0x00000e38:    01518000    ..Q.    DCD    22118400
    .constdata
    uc_hextab
        0x00000e3c:    33323130    0123    DCD    858927408
        0x00000e40:    37363534    4567    DCD    926299444
        0x00000e44:    42413938    89AB    DCD    1111570744
        0x00000e48:    46454443    CDEF    DCD    1178944579
        0x00000e4c:    00583040    @0X.    DCD    5779520
    lc_hextab
        0x00000e50:    33323130    0123    DCD    858927408
        0x00000e54:    37363534    4567    DCD    926299444
        0x00000e58:    62613938    89ab    DCD    1650538808
        0x00000e5c:    66656463    cdef    DCD    1717920867
        0x00000e60:    00783040    @0x.    DCD    7876672
    Region$$Table$$Base
        0x00000e64:    00000e84    ....    DCD    3716
        0x00000e68:    20000000    ...     DCD    536870912
        0x00000e6c:    00000024    $...    DCD    36
        0x00000e70:    00000104    ....    DCD    260
        0x00000e74:    00000ea8    ....    DCD    3752
        0x00000e78:    20000024    $..     DCD    536870948
        0x00000e7c:    000002d4    ....    DCD    724
        0x00000e80:    00000120     ...    DCD    288
    Region$$Table$$Limit

** Section #2 'ER_RW' (SHT_PROGBITS) [SHF_ALLOC + SHF_WRITE]
    Size   : 36 bytes (alignment 4)
    Address: 0x20000000


** Section #3 'ER_ZI' (SHT_NOBITS) [SHF_ALLOC + SHF_WRITE]
    Size   : 724 bytes (alignment 8)
    Address: 0x20000024


** Section #4 '.debug_abbrev' (SHT_PROGBITS)
    Size   : 1476 bytes


** Section #5 '.debug_frame' (SHT_PROGBITS)
    Size   : 1808 bytes


** Section #6 '.debug_info' (SHT_PROGBITS)
    Size   : 18924 bytes


** Section #7 '.debug_line' (SHT_PROGBITS)
    Size   : 6128 bytes


** Section #8 '.debug_loc' (SHT_PROGBITS)
    Size   : 1896 bytes


** Section #9 '.debug_macinfo' (SHT_PROGBITS)
    Size   : 68476 bytes


** Section #10 '.debug_pubnames' (SHT_PROGBITS)
    Size   : 1169 bytes


** Section #11 '.symtab' (SHT_SYMTAB)
    Size   : 6960 bytes (alignment 4)
    String table #12 '.strtab'
    Last local symbol no. 279


** Section #12 '.strtab' (SHT_STRTAB)
    Size   : 5872 bytes


** Section #13 '.note' (SHT_NOTE)
    Size   : 28 bytes (alignment 4)


** Section #14 '.comment' (SHT_PROGBITS)
    Size   : 6884 bytes


** Section #15 '.shstrtab' (SHT_STRTAB)
    Size   : 156 bytes


